Component: ARM Compiler 5.06 update 4 (build 422) Tool: armlink [4d35d2]

==============================================================================

Section Cross References

    headsup.o(i.PIT0_IRQHandler) refers to fsl_debug_console.o(i.debug_printf) for debug_printf
    headsup.o(i.PIT0_IRQHandler) refers to headsup.o(i.game_over) for game_over
    headsup.o(i.PIT0_IRQHandler) refers to headsup.o(.data) for seconds
    headsup.o(i.PIT1_IRQHandler) refers to fxos8700.o(i.Accelerometer_GetState) for Accelerometer_GetState
    headsup.o(i.PIT1_IRQHandler) refers to fsl_debug_console.o(i.debug_printf) for debug_printf
    headsup.o(i.PIT1_IRQHandler) refers to headsup.o(i.print_next) for print_next
    headsup.o(i.PIT1_IRQHandler) refers to headsup.o(.data) for seconds
    headsup.o(i.PIT1_IRQHandler) refers to headsup.o(.bss) for state
    headsup.o(i.PORTA_IRQHandler) refers to fsl_debug_console.o(i.debug_printf) for debug_printf
    headsup.o(i.game_over) refers to fsl_debug_console.o(i.debug_printf) for debug_printf
    headsup.o(i.game_over) refers to headsup.o(.data) for words_correct
    headsup.o(i.main) refers to hardware_init.o(i.hardware_init) for hardware_init
    headsup.o(i.main) refers to fxos8700.o(i.Accelerometer_Initialize) for Accelerometer_Initialize
    headsup.o(i.main) refers to headsup.o(i.__NVIC_EnableIRQ) for __NVIC_EnableIRQ
    headsup.o(i.main) refers to rand.o(.text) for srand
    headsup.o(i.main) refers to headsup.o(.data) for seconds
    headsup.o(i.main) refers to headsup.o(.bss) for sports
    headsup.o(i.main) refers to fsl_debug_console.o(i.debug_printf) for debug_printf
    headsup.o(i.main) refers to fxos8700.o(i.Accelerometer_GetState) for Accelerometer_GetState
    headsup.o(i.main) refers to headsup.o(.conststring) for .conststring
    headsup.o(i.main) refers to headsup.o(i.timer_setup) for timer_setup
    headsup.o(i.main) refers to headsup.o(i.shuffle) for shuffle
    headsup.o(i.main) refers to headsup.o(i.print_next) for print_next
    headsup.o(i.print_next) refers to fsl_debug_console.o(i.debug_printf) for debug_printf
    headsup.o(i.print_next) refers to headsup.o(i.game_over) for game_over
    headsup.o(i.print_next) refers to headsup.o(.data) for list_ind
    headsup.o(i.shuffle) refers to rand.o(.emb_text) for rand
    headsup.o(i.timer_setup) refers to headsup.o(i.__NVIC_EnableIRQ) for __NVIC_EnableIRQ
    headsup.o(i.timer_setup) refers to headsup.o(i.__NVIC_SetPriority) for __NVIC_SetPriority
    fxos8700.o(i.Accelerometer_GetState) refers to fxos8700.o(.data) for Status
    fxos8700.o(i.Accelerometer_GetState) refers to i2c_mk64f.o(.constdata) for Driver_I2C0
    fxos8700.o(i.Accelerometer_Initialize) refers to fxos8700.o(i.Initialize) for Initialize
    fxos8700.o(i.Accelerometer_Initialize) refers to fxos8700.o(.data) for Status
    fxos8700.o(i.Accelerometer_Uninitialize) refers to fxos8700.o(.data) for Status
    fxos8700.o(i.Initialize) refers to fxos8700.o(i.Register_Read) for Register_Read
    fxos8700.o(i.Initialize) refers to fxos8700.o(i.Register_Write) for Register_Write
    fxos8700.o(i.Initialize) refers to fxos8700.o(.data) for Status
    fxos8700.o(i.Initialize) refers to i2c_mk64f.o(.constdata) for Driver_I2C0
    fxos8700.o(i.Magnetometer_GetState) refers to fxos8700.o(.data) for Status
    fxos8700.o(i.Magnetometer_GetState) refers to i2c_mk64f.o(.constdata) for Driver_I2C0
    fxos8700.o(i.Magnetometer_Initialize) refers to fxos8700.o(i.Initialize) for Initialize
    fxos8700.o(i.Magnetometer_Initialize) refers to fxos8700.o(.data) for Status
    fxos8700.o(i.Magnetometer_Uninitialize) refers to fxos8700.o(.data) for Status
    fxos8700.o(i.Register_Read) refers to i2c_mk64f.o(.constdata) for Driver_I2C0
    fxos8700.o(i.Register_Write) refers to i2c_mk64f.o(.constdata) for Driver_I2C0
    i2c_mk64f.o(i.EDMA_DRV_PrepareDescriptorTransfer) refers to fsl_edma_hal.o(i.EDMA_HAL_STCDSetBasicTransfer) for EDMA_HAL_STCDSetBasicTransfer
    i2c_mk64f.o(i.EDMA_DRV_PrepareDescriptorTransfer) refers to fsl_edma_common.o(.constdata) for g_edmaBase
    i2c_mk64f.o(i.EDMA_HAL_STCDSetBandwidth) refers to assert.o(.text) for __aeabi_assert
    i2c_mk64f.o(i.EDMA_HAL_STCDSetBandwidth) refers to i2c_mk64f.o(.conststring) for .conststring
    i2c_mk64f.o(i.EDMA_HAL_STCDSetChannelMajorLink) refers to assert.o(.text) for __aeabi_assert
    i2c_mk64f.o(i.EDMA_HAL_STCDSetChannelMajorLink) refers to i2c_mk64f.o(.conststring) for .conststring
    i2c_mk64f.o(i.EDMA_HAL_STCDSetDisableDmaRequestAfterTCDDoneCmd) refers to assert.o(.text) for __aeabi_assert
    i2c_mk64f.o(i.EDMA_HAL_STCDSetDisableDmaRequestAfterTCDDoneCmd) refers to i2c_mk64f.o(.conststring) for .conststring
    i2c_mk64f.o(i.EDMA_HAL_STCDSetHalfCompleteIntCmd) refers to assert.o(.text) for __aeabi_assert
    i2c_mk64f.o(i.EDMA_HAL_STCDSetHalfCompleteIntCmd) refers to i2c_mk64f.o(.conststring) for .conststring
    i2c_mk64f.o(i.EDMA_HAL_STCDSetScatterGatherCmd) refers to assert.o(.text) for __aeabi_assert
    i2c_mk64f.o(i.EDMA_HAL_STCDSetScatterGatherCmd) refers to i2c_mk64f.o(.conststring) for .conststring
    i2c_mk64f.o(i.GPIO_HAL_ClearPinOutput) refers to assert.o(.text) for __aeabi_assert
    i2c_mk64f.o(i.GPIO_HAL_ClearPinOutput) refers to i2c_mk64f.o(.conststring) for .conststring
    i2c_mk64f.o(i.GPIO_HAL_ReadPinInput) refers to assert.o(.text) for __aeabi_assert
    i2c_mk64f.o(i.GPIO_HAL_ReadPinInput) refers to i2c_mk64f.o(.conststring) for .conststring
    i2c_mk64f.o(i.GPIO_HAL_SetPinOutput) refers to assert.o(.text) for __aeabi_assert
    i2c_mk64f.o(i.GPIO_HAL_SetPinOutput) refers to i2c_mk64f.o(.conststring) for .conststring
    i2c_mk64f.o(i.I2C0_Control) refers to i2c_mk64f.o(i.I2C_Control) for I2C_Control
    i2c_mk64f.o(i.I2C0_Control) refers to i2c_mk64f.o(.constdata) for I2C0_Resources
    i2c_mk64f.o(i.I2C0_GetDataCount) refers to i2c_mk64f.o(i.I2C_GetDataCount) for I2C_GetDataCount
    i2c_mk64f.o(i.I2C0_GetDataCount) refers to i2c_mk64f.o(.constdata) for I2C0_Resources
    i2c_mk64f.o(i.I2C0_GetStatus) refers to i2c_mk64f.o(i.I2C_GetStatus) for I2C_GetStatus
    i2c_mk64f.o(i.I2C0_GetStatus) refers to i2c_mk64f.o(.constdata) for I2C0_Resources
    i2c_mk64f.o(i.I2C0_IRQHandler) refers to i2c_mk64f.o(i.I2Cx_IRQHandler) for I2Cx_IRQHandler
    i2c_mk64f.o(i.I2C0_IRQHandler) refers to i2c_mk64f.o(.constdata) for I2C0_Resources
    i2c_mk64f.o(i.I2C0_Initialize) refers to i2c_mk64f.o(i.I2C_Initialize) for I2C_Initialize
    i2c_mk64f.o(i.I2C0_Initialize) refers to i2c_mk64f.o(.constdata) for I2C0_Resources
    i2c_mk64f.o(i.I2C0_MasterReceive) refers to i2c_mk64f.o(i.I2C_MasterReceive) for I2C_MasterReceive
    i2c_mk64f.o(i.I2C0_MasterReceive) refers to i2c_mk64f.o(.constdata) for I2C0_Resources
    i2c_mk64f.o(i.I2C0_MasterTransmit) refers to i2c_mk64f.o(i.I2C_MasterTransmit) for I2C_MasterTransmit
    i2c_mk64f.o(i.I2C0_MasterTransmit) refers to i2c_mk64f.o(.constdata) for I2C0_Resources
    i2c_mk64f.o(i.I2C0_PowerControl) refers to i2c_mk64f.o(i.I2C_PowerControl) for I2C_PowerControl
    i2c_mk64f.o(i.I2C0_PowerControl) refers to i2c_mk64f.o(.constdata) for I2C0_Resources
    i2c_mk64f.o(i.I2C0_SlaveReceive) refers to i2c_mk64f.o(i.I2C_SlaveReceive) for I2C_SlaveReceive
    i2c_mk64f.o(i.I2C0_SlaveReceive) refers to i2c_mk64f.o(.constdata) for I2C0_Resources
    i2c_mk64f.o(i.I2C0_SlaveTransmit) refers to i2c_mk64f.o(i.I2C_SlaveTransmit) for I2C_SlaveTransmit
    i2c_mk64f.o(i.I2C0_SlaveTransmit) refers to i2c_mk64f.o(.constdata) for I2C0_Resources
    i2c_mk64f.o(i.I2C0_Uninitialize) refers to i2c_mk64f.o(i.I2C_Uninitialize) for I2C_Uninitialize
    i2c_mk64f.o(i.I2C0_Uninitialize) refers to i2c_mk64f.o(.constdata) for I2C0_Resources
    i2c_mk64f.o(i.I2C1_Control) refers to i2c_mk64f.o(i.I2C_Control) for I2C_Control
    i2c_mk64f.o(i.I2C1_Control) refers to i2c_mk64f.o(.constdata) for I2C1_Resources
    i2c_mk64f.o(i.I2C1_GetDataCount) refers to i2c_mk64f.o(i.I2C_GetDataCount) for I2C_GetDataCount
    i2c_mk64f.o(i.I2C1_GetDataCount) refers to i2c_mk64f.o(.constdata) for I2C1_Resources
    i2c_mk64f.o(i.I2C1_GetStatus) refers to i2c_mk64f.o(i.I2C_GetStatus) for I2C_GetStatus
    i2c_mk64f.o(i.I2C1_GetStatus) refers to i2c_mk64f.o(.constdata) for I2C1_Resources
    i2c_mk64f.o(i.I2C1_IRQHandler) refers to i2c_mk64f.o(i.I2Cx_IRQHandler) for I2Cx_IRQHandler
    i2c_mk64f.o(i.I2C1_IRQHandler) refers to i2c_mk64f.o(.constdata) for I2C1_Resources
    i2c_mk64f.o(i.I2C1_Initialize) refers to i2c_mk64f.o(i.I2C_Initialize) for I2C_Initialize
    i2c_mk64f.o(i.I2C1_Initialize) refers to i2c_mk64f.o(.constdata) for I2C1_Resources
    i2c_mk64f.o(i.I2C1_MasterReceive) refers to i2c_mk64f.o(i.I2C_MasterReceive) for I2C_MasterReceive
    i2c_mk64f.o(i.I2C1_MasterReceive) refers to i2c_mk64f.o(.constdata) for I2C1_Resources
    i2c_mk64f.o(i.I2C1_MasterTransmit) refers to i2c_mk64f.o(i.I2C_MasterTransmit) for I2C_MasterTransmit
    i2c_mk64f.o(i.I2C1_MasterTransmit) refers to i2c_mk64f.o(.constdata) for I2C1_Resources
    i2c_mk64f.o(i.I2C1_PowerControl) refers to i2c_mk64f.o(i.I2C_PowerControl) for I2C_PowerControl
    i2c_mk64f.o(i.I2C1_PowerControl) refers to i2c_mk64f.o(.constdata) for I2C1_Resources
    i2c_mk64f.o(i.I2C1_SlaveReceive) refers to i2c_mk64f.o(i.I2C_SlaveReceive) for I2C_SlaveReceive
    i2c_mk64f.o(i.I2C1_SlaveReceive) refers to i2c_mk64f.o(.constdata) for I2C1_Resources
    i2c_mk64f.o(i.I2C1_SlaveTransmit) refers to i2c_mk64f.o(i.I2C_SlaveTransmit) for I2C_SlaveTransmit
    i2c_mk64f.o(i.I2C1_SlaveTransmit) refers to i2c_mk64f.o(.constdata) for I2C1_Resources
    i2c_mk64f.o(i.I2C1_Uninitialize) refers to i2c_mk64f.o(i.I2C_Uninitialize) for I2C_Uninitialize
    i2c_mk64f.o(i.I2C1_Uninitialize) refers to i2c_mk64f.o(.constdata) for I2C1_Resources
    i2c_mk64f.o(i.I2C2_Control) refers to i2c_mk64f.o(i.I2C_Control) for I2C_Control
    i2c_mk64f.o(i.I2C2_Control) refers to i2c_mk64f.o(.constdata) for I2C2_Resources
    i2c_mk64f.o(i.I2C2_GetDataCount) refers to i2c_mk64f.o(i.I2C_GetDataCount) for I2C_GetDataCount
    i2c_mk64f.o(i.I2C2_GetDataCount) refers to i2c_mk64f.o(.constdata) for I2C2_Resources
    i2c_mk64f.o(i.I2C2_GetStatus) refers to i2c_mk64f.o(i.I2C_GetStatus) for I2C_GetStatus
    i2c_mk64f.o(i.I2C2_GetStatus) refers to i2c_mk64f.o(.constdata) for I2C2_Resources
    i2c_mk64f.o(i.I2C2_IRQHandler) refers to i2c_mk64f.o(i.I2Cx_IRQHandler) for I2Cx_IRQHandler
    i2c_mk64f.o(i.I2C2_IRQHandler) refers to i2c_mk64f.o(.constdata) for I2C2_Resources
    i2c_mk64f.o(i.I2C2_Initialize) refers to i2c_mk64f.o(i.I2C_Initialize) for I2C_Initialize
    i2c_mk64f.o(i.I2C2_Initialize) refers to i2c_mk64f.o(.constdata) for I2C2_Resources
    i2c_mk64f.o(i.I2C2_MasterReceive) refers to i2c_mk64f.o(i.I2C_MasterReceive) for I2C_MasterReceive
    i2c_mk64f.o(i.I2C2_MasterReceive) refers to i2c_mk64f.o(.constdata) for I2C2_Resources
    i2c_mk64f.o(i.I2C2_MasterTransmit) refers to i2c_mk64f.o(i.I2C_MasterTransmit) for I2C_MasterTransmit
    i2c_mk64f.o(i.I2C2_MasterTransmit) refers to i2c_mk64f.o(.constdata) for I2C2_Resources
    i2c_mk64f.o(i.I2C2_PowerControl) refers to i2c_mk64f.o(i.I2C_PowerControl) for I2C_PowerControl
    i2c_mk64f.o(i.I2C2_PowerControl) refers to i2c_mk64f.o(.constdata) for I2C2_Resources
    i2c_mk64f.o(i.I2C2_SlaveReceive) refers to i2c_mk64f.o(i.I2C_SlaveReceive) for I2C_SlaveReceive
    i2c_mk64f.o(i.I2C2_SlaveReceive) refers to i2c_mk64f.o(.constdata) for I2C2_Resources
    i2c_mk64f.o(i.I2C2_SlaveTransmit) refers to i2c_mk64f.o(i.I2C_SlaveTransmit) for I2C_SlaveTransmit
    i2c_mk64f.o(i.I2C2_SlaveTransmit) refers to i2c_mk64f.o(.constdata) for I2C2_Resources
    i2c_mk64f.o(i.I2C2_Uninitialize) refers to i2c_mk64f.o(i.I2C_Uninitialize) for I2C_Uninitialize
    i2c_mk64f.o(i.I2C2_Uninitialize) refers to i2c_mk64f.o(.constdata) for I2C2_Resources
    i2c_mk64f.o(i.I2CX_GetCapabilities) refers to i2c_mk64f.o(.constdata) for DriverCapabilities
    i2c_mk64f.o(i.I2CX_GetVersion) refers to i2c_mk64f.o(.constdata) for DriverVersion
    i2c_mk64f.o(i.I2C_Control) refers to fsl_i2c_hal.o(i.I2C_HAL_SetAddress10bit) for I2C_HAL_SetAddress10bit
    i2c_mk64f.o(i.I2C_Control) refers to fsl_i2c_hal.o(i.I2C_HAL_SetAddress7bit) for I2C_HAL_SetAddress7bit
    i2c_mk64f.o(i.I2C_Control) refers to fsl_clock_mk64f12.o(i.CLOCK_SYS_GetBusClockFreq) for CLOCK_SYS_GetBusClockFreq
    i2c_mk64f.o(i.I2C_Control) refers to fsl_i2c_hal.o(i.I2C_HAL_SetBaudRate) for I2C_HAL_SetBaudRate
    i2c_mk64f.o(i.I2C_Control) refers to system_mk64f12.o(i.SystemCoreClockUpdate) for SystemCoreClockUpdate
    i2c_mk64f.o(i.I2C_Control) refers to i2c_mk64f.o(i.PORT_HAL_SetMuxMode) for PORT_HAL_SetMuxMode
    i2c_mk64f.o(i.I2C_Control) refers to i2c_mk64f.o(i.PTx_Base) for PTx_Base
    i2c_mk64f.o(i.I2C_Control) refers to fsl_gpio_hal.o(i.GPIO_HAL_SetPinDir) for GPIO_HAL_SetPinDir
    i2c_mk64f.o(i.I2C_Control) refers to i2c_mk64f.o(i.GPIO_HAL_ReadPinInput) for GPIO_HAL_ReadPinInput
    i2c_mk64f.o(i.I2C_Control) refers to i2c_mk64f.o(i.GPIO_HAL_SetPinOutput) for GPIO_HAL_SetPinOutput
    i2c_mk64f.o(i.I2C_Control) refers to i2c_mk64f.o(i.GPIO_HAL_ClearPinOutput) for GPIO_HAL_ClearPinOutput
    i2c_mk64f.o(i.I2C_Control) refers to i2c_mk64f.o(i.I2C_HAL_SetIntCmd) for I2C_HAL_SetIntCmd
    i2c_mk64f.o(i.I2C_Control) refers to i2c_mk64f.o(i.I2C_HAL_IsMaster) for I2C_HAL_IsMaster
    i2c_mk64f.o(i.I2C_Control) refers to fsl_i2c_hal.o(i.I2C_HAL_SendStop) for I2C_HAL_SendStop
    i2c_mk64f.o(i.I2C_Control) refers to system_mk64f12.o(.data) for SystemCoreClock
    i2c_mk64f.o(i.I2C_Initialize) refers to i2c_mk64f.o(i.PORT_HAL_SetMuxMode) for PORT_HAL_SetMuxMode
    i2c_mk64f.o(i.I2C_Initialize) refers to i2c_mk64f.o(i.PORT_HAL_SetOpenDrainCmd) for PORT_HAL_SetOpenDrainCmd
    i2c_mk64f.o(i.I2C_Initialize) refers to rt_memclr_w.o(.text) for __aeabi_memclr4
    i2c_mk64f.o(i.I2C_Initialize) refers to fsl_edma_driver.o(i.EDMA_DRV_RequestChannel) for EDMA_DRV_RequestChannel
    i2c_mk64f.o(i.I2C_Initialize) refers to fsl_edma_driver.o(i.EDMA_DRV_InstallCallback) for EDMA_DRV_InstallCallback
    i2c_mk64f.o(i.I2C_Initialize) refers to i2c_mk64f.o(i.I2Cx_DMA_Callback) for I2Cx_DMA_Callback
    i2c_mk64f.o(i.I2C_MasterReceive) refers to i2c_mk64f.o(i.EDMA_DRV_PrepareDescriptorTransfer) for EDMA_DRV_PrepareDescriptorTransfer
    i2c_mk64f.o(i.I2C_MasterReceive) refers to i2c_mk64f.o(i.EDMA_HAL_STCDSetScatterGatherCmd) for EDMA_HAL_STCDSetScatterGatherCmd
    i2c_mk64f.o(i.I2C_MasterReceive) refers to i2c_mk64f.o(i.EDMA_HAL_STCDSetChannelMajorLink) for EDMA_HAL_STCDSetChannelMajorLink
    i2c_mk64f.o(i.I2C_MasterReceive) refers to i2c_mk64f.o(i.EDMA_HAL_STCDSetHalfCompleteIntCmd) for EDMA_HAL_STCDSetHalfCompleteIntCmd
    i2c_mk64f.o(i.I2C_MasterReceive) refers to i2c_mk64f.o(i.EDMA_HAL_STCDSetBandwidth) for EDMA_HAL_STCDSetBandwidth
    i2c_mk64f.o(i.I2C_MasterReceive) refers to i2c_mk64f.o(i.EDMA_HAL_STCDSetDisableDmaRequestAfterTCDDoneCmd) for EDMA_HAL_STCDSetDisableDmaRequestAfterTCDDoneCmd
    i2c_mk64f.o(i.I2C_MasterReceive) refers to fsl_edma_driver.o(i.EDMA_DRV_PushDescriptorToReg) for EDMA_DRV_PushDescriptorToReg
    i2c_mk64f.o(i.I2C_MasterReceive) refers to fsl_edma_driver.o(i.EDMA_DRV_StartChannel) for EDMA_DRV_StartChannel
    i2c_mk64f.o(i.I2C_MasterReceive) refers to fsl_i2c_hal.o(i.I2C_HAL_SendStart) for I2C_HAL_SendStart
    i2c_mk64f.o(i.I2C_MasterTransmit) refers to i2c_mk64f.o(i.EDMA_DRV_PrepareDescriptorTransfer) for EDMA_DRV_PrepareDescriptorTransfer
    i2c_mk64f.o(i.I2C_MasterTransmit) refers to i2c_mk64f.o(i.EDMA_HAL_STCDSetScatterGatherCmd) for EDMA_HAL_STCDSetScatterGatherCmd
    i2c_mk64f.o(i.I2C_MasterTransmit) refers to i2c_mk64f.o(i.EDMA_HAL_STCDSetChannelMajorLink) for EDMA_HAL_STCDSetChannelMajorLink
    i2c_mk64f.o(i.I2C_MasterTransmit) refers to i2c_mk64f.o(i.EDMA_HAL_STCDSetHalfCompleteIntCmd) for EDMA_HAL_STCDSetHalfCompleteIntCmd
    i2c_mk64f.o(i.I2C_MasterTransmit) refers to i2c_mk64f.o(i.EDMA_HAL_STCDSetBandwidth) for EDMA_HAL_STCDSetBandwidth
    i2c_mk64f.o(i.I2C_MasterTransmit) refers to i2c_mk64f.o(i.EDMA_HAL_STCDSetDisableDmaRequestAfterTCDDoneCmd) for EDMA_HAL_STCDSetDisableDmaRequestAfterTCDDoneCmd
    i2c_mk64f.o(i.I2C_MasterTransmit) refers to fsl_edma_driver.o(i.EDMA_DRV_PushDescriptorToReg) for EDMA_DRV_PushDescriptorToReg
    i2c_mk64f.o(i.I2C_MasterTransmit) refers to fsl_edma_driver.o(i.EDMA_DRV_StartChannel) for EDMA_DRV_StartChannel
    i2c_mk64f.o(i.I2C_MasterTransmit) refers to fsl_i2c_hal.o(i.I2C_HAL_SendStart) for I2C_HAL_SendStart
    i2c_mk64f.o(i.I2C_PowerControl) refers to i2c_mk64f.o(i.I2C_HAL_SetIntCmd) for I2C_HAL_SetIntCmd
    i2c_mk64f.o(i.I2C_PowerControl) refers to i2c_mk64f.o(i.I2C_HAL_IsMaster) for I2C_HAL_IsMaster
    i2c_mk64f.o(i.I2C_PowerControl) refers to fsl_i2c_hal.o(i.I2C_HAL_SendStop) for I2C_HAL_SendStop
    i2c_mk64f.o(i.I2C_PowerControl) refers to fsl_i2c_hal.o(i.I2C_HAL_Init) for I2C_HAL_Init
    i2c_mk64f.o(i.I2Cx_DMA_Callback) refers to i2c_mk64f.o(i.I2C_HAL_SetDmaCmd) for I2C_HAL_SetDmaCmd
    i2c_mk64f.o(i.I2Cx_DMA_Callback) refers to i2c_mk64f.o(i.I2C_HAL_SendNak) for I2C_HAL_SendNak
    i2c_mk64f.o(i.I2Cx_DMA_Callback) refers to i2c_mk64f.o(i.I2C_HAL_ReadByte) for I2C_HAL_ReadByte
    i2c_mk64f.o(i.I2Cx_IRQHandler) refers to i2c_mk64f.o(i.I2C_HAL_ClearInt) for I2C_HAL_ClearInt
    i2c_mk64f.o(i.I2Cx_IRQHandler) refers to i2c_mk64f.o(i.I2C_HAL_SetDirMode) for I2C_HAL_SetDirMode
    i2c_mk64f.o(i.I2Cx_IRQHandler) refers to i2c_mk64f.o(i.I2C_HAL_WriteByte) for I2C_HAL_WriteByte
    i2c_mk64f.o(i.I2Cx_IRQHandler) refers to i2c_mk64f.o(i.I2C_HAL_GetStatusFlag) for I2C_HAL_GetStatusFlag
    i2c_mk64f.o(i.I2Cx_IRQHandler) refers to i2c_mk64f.o(i.I2C_HAL_ReadByte) for I2C_HAL_ReadByte
    i2c_mk64f.o(i.I2Cx_IRQHandler) refers to i2c_mk64f.o(i.I2C_HAL_SendNak) for I2C_HAL_SendNak
    i2c_mk64f.o(i.I2Cx_IRQHandler) refers to fsl_i2c_hal.o(i.I2C_HAL_SendStop) for I2C_HAL_SendStop
    i2c_mk64f.o(i.I2Cx_IRQHandler) refers to fsl_i2c_hal.o(i.I2C_HAL_SendStart) for I2C_HAL_SendStart
    i2c_mk64f.o(i.I2Cx_IRQHandler) refers to i2c_mk64f.o(i.I2C_HAL_SetDmaCmd) for I2C_HAL_SetDmaCmd
    i2c_mk64f.o(i.I2Cx_IRQHandler) refers to i2c_mk64f.o(i.I2C_HAL_SendAck) for I2C_HAL_SendAck
    i2c_mk64f.o(i.PORT_HAL_SetMuxMode) refers to assert.o(.text) for __aeabi_assert
    i2c_mk64f.o(i.PORT_HAL_SetMuxMode) refers to i2c_mk64f.o(.conststring) for .conststring
    i2c_mk64f.o(i.PORT_HAL_SetOpenDrainCmd) refers to assert.o(.text) for __aeabi_assert
    i2c_mk64f.o(i.PORT_HAL_SetOpenDrainCmd) refers to i2c_mk64f.o(.conststring) for .conststring
    i2c_mk64f.o(.constdata) refers to i2c_mk64f.o(.bss) for I2C0_Ctrl
    i2c_mk64f.o(.constdata) refers to i2c_mk64f.o(i.I2CX_GetVersion) for I2CX_GetVersion
    i2c_mk64f.o(.constdata) refers to i2c_mk64f.o(i.I2CX_GetCapabilities) for I2CX_GetCapabilities
    i2c_mk64f.o(.constdata) refers to i2c_mk64f.o(i.I2C0_Initialize) for I2C0_Initialize
    i2c_mk64f.o(.constdata) refers to i2c_mk64f.o(i.I2C0_Uninitialize) for I2C0_Uninitialize
    i2c_mk64f.o(.constdata) refers to i2c_mk64f.o(i.I2C0_PowerControl) for I2C0_PowerControl
    i2c_mk64f.o(.constdata) refers to i2c_mk64f.o(i.I2C0_MasterTransmit) for I2C0_MasterTransmit
    i2c_mk64f.o(.constdata) refers to i2c_mk64f.o(i.I2C0_MasterReceive) for I2C0_MasterReceive
    i2c_mk64f.o(.constdata) refers to i2c_mk64f.o(i.I2C0_SlaveTransmit) for I2C0_SlaveTransmit
    i2c_mk64f.o(.constdata) refers to i2c_mk64f.o(i.I2C0_SlaveReceive) for I2C0_SlaveReceive
    i2c_mk64f.o(.constdata) refers to i2c_mk64f.o(i.I2C0_GetDataCount) for I2C0_GetDataCount
    i2c_mk64f.o(.constdata) refers to i2c_mk64f.o(i.I2C0_Control) for I2C0_Control
    i2c_mk64f.o(.constdata) refers to i2c_mk64f.o(i.I2C0_GetStatus) for I2C0_GetStatus
    i2c_mk64f.o(.constdata) refers to i2c_mk64f.o(i.I2C1_Initialize) for I2C1_Initialize
    i2c_mk64f.o(.constdata) refers to i2c_mk64f.o(i.I2C1_Uninitialize) for I2C1_Uninitialize
    i2c_mk64f.o(.constdata) refers to i2c_mk64f.o(i.I2C1_PowerControl) for I2C1_PowerControl
    i2c_mk64f.o(.constdata) refers to i2c_mk64f.o(i.I2C1_MasterTransmit) for I2C1_MasterTransmit
    i2c_mk64f.o(.constdata) refers to i2c_mk64f.o(i.I2C1_MasterReceive) for I2C1_MasterReceive
    i2c_mk64f.o(.constdata) refers to i2c_mk64f.o(i.I2C1_SlaveTransmit) for I2C1_SlaveTransmit
    i2c_mk64f.o(.constdata) refers to i2c_mk64f.o(i.I2C1_SlaveReceive) for I2C1_SlaveReceive
    i2c_mk64f.o(.constdata) refers to i2c_mk64f.o(i.I2C1_GetDataCount) for I2C1_GetDataCount
    i2c_mk64f.o(.constdata) refers to i2c_mk64f.o(i.I2C1_Control) for I2C1_Control
    i2c_mk64f.o(.constdata) refers to i2c_mk64f.o(i.I2C1_GetStatus) for I2C1_GetStatus
    i2c_mk64f.o(.constdata) refers to i2c_mk64f.o(i.I2C2_Initialize) for I2C2_Initialize
    i2c_mk64f.o(.constdata) refers to i2c_mk64f.o(i.I2C2_Uninitialize) for I2C2_Uninitialize
    i2c_mk64f.o(.constdata) refers to i2c_mk64f.o(i.I2C2_PowerControl) for I2C2_PowerControl
    i2c_mk64f.o(.constdata) refers to i2c_mk64f.o(i.I2C2_MasterTransmit) for I2C2_MasterTransmit
    i2c_mk64f.o(.constdata) refers to i2c_mk64f.o(i.I2C2_MasterReceive) for I2C2_MasterReceive
    i2c_mk64f.o(.constdata) refers to i2c_mk64f.o(i.I2C2_SlaveTransmit) for I2C2_SlaveTransmit
    i2c_mk64f.o(.constdata) refers to i2c_mk64f.o(i.I2C2_SlaveReceive) for I2C2_SlaveReceive
    i2c_mk64f.o(.constdata) refers to i2c_mk64f.o(i.I2C2_GetDataCount) for I2C2_GetDataCount
    i2c_mk64f.o(.constdata) refers to i2c_mk64f.o(i.I2C2_Control) for I2C2_Control
    i2c_mk64f.o(.constdata) refers to i2c_mk64f.o(i.I2C2_GetStatus) for I2C2_GetStatus
    board.o(i.BOARD_ClockInit) refers to assert.o(.text) for __aeabi_assert
    board.o(i.BOARD_ClockInit) refers to board.o(i.BOARD_InitOsc0) for BOARD_InitOsc0
    board.o(i.BOARD_ClockInit) refers to board.o(i.BOARD_InitRtcOsc) for BOARD_InitRtcOsc
    board.o(i.BOARD_ClockInit) refers to fsl_clock_mk64f12.o(i.CLOCK_SYS_SetConfiguration) for CLOCK_SYS_SetConfiguration
    board.o(i.BOARD_ClockInit) refers to board.o(.conststring) for .conststring
    board.o(i.BOARD_ClockInit) refers to board.o(.constdata) for g_defaultClockConfigRun
    board.o(i.BOARD_InitOsc0) refers to fsl_clock_manager.o(i.CLOCK_SYS_OscInit) for CLOCK_SYS_OscInit
    board.o(i.BOARD_InitOsc0) refers to board.o(.constdata) for .constdata
    board.o(i.BOARD_InitRtcOsc) refers to fsl_clock_manager.o(i.CLOCK_SYS_RtcOscInit) for CLOCK_SYS_RtcOscInit
    board.o(i.BOARD_InitRtcOsc) refers to board.o(.constdata) for .constdata
    board.o(i.dbg_uart_init) refers to pin_mux.o(i.configure_uart_pins) for configure_uart_pins
    board.o(i.dbg_uart_init) refers to fsl_debug_console.o(i.DbgConsole_Init) for DbgConsole_Init
    pin_mux.o(i.PORT_HAL_SetDriveStrengthMode) refers to assert.o(.text) for __aeabi_assert
    pin_mux.o(i.PORT_HAL_SetDriveStrengthMode) refers to pin_mux.o(.conststring) for .conststring
    pin_mux.o(i.PORT_HAL_SetMuxMode) refers to assert.o(.text) for __aeabi_assert
    pin_mux.o(i.PORT_HAL_SetMuxMode) refers to pin_mux.o(.conststring) for .conststring
    pin_mux.o(i.PORT_HAL_SetOpenDrainCmd) refers to assert.o(.text) for __aeabi_assert
    pin_mux.o(i.PORT_HAL_SetOpenDrainCmd) refers to pin_mux.o(.conststring) for .conststring
    pin_mux.o(i.PORT_HAL_SetPassiveFilterCmd) refers to assert.o(.text) for __aeabi_assert
    pin_mux.o(i.PORT_HAL_SetPassiveFilterCmd) refers to pin_mux.o(.conststring) for .conststring
    pin_mux.o(i.PORT_HAL_SetPullCmd) refers to assert.o(.text) for __aeabi_assert
    pin_mux.o(i.PORT_HAL_SetPullCmd) refers to pin_mux.o(.conststring) for .conststring
    pin_mux.o(i.PORT_HAL_SetPullMode) refers to assert.o(.text) for __aeabi_assert
    pin_mux.o(i.PORT_HAL_SetPullMode) refers to pin_mux.o(.conststring) for .conststring
    pin_mux.o(i.PORT_HAL_SetSlewRateMode) refers to assert.o(.text) for __aeabi_assert
    pin_mux.o(i.PORT_HAL_SetSlewRateMode) refers to pin_mux.o(.conststring) for .conststring
    pin_mux.o(i.configure_can_pins) refers to pin_mux.o(i.PORT_HAL_SetMuxMode) for PORT_HAL_SetMuxMode
    pin_mux.o(i.configure_cmp_pins) refers to pin_mux.o(i.PORT_HAL_SetMuxMode) for PORT_HAL_SetMuxMode
    pin_mux.o(i.configure_enet_pins) refers to pin_mux.o(i.PORT_HAL_SetMuxMode) for PORT_HAL_SetMuxMode
    pin_mux.o(i.configure_enet_pins) refers to pin_mux.o(i.PORT_HAL_SetOpenDrainCmd) for PORT_HAL_SetOpenDrainCmd
    pin_mux.o(i.configure_enet_pins) refers to pin_mux.o(i.PORT_HAL_SetPullMode) for PORT_HAL_SetPullMode
    pin_mux.o(i.configure_enet_pins) refers to pin_mux.o(i.PORT_HAL_SetPullCmd) for PORT_HAL_SetPullCmd
    pin_mux.o(i.configure_ftm_pins) refers to pin_mux.o(i.PORT_HAL_SetMuxMode) for PORT_HAL_SetMuxMode
    pin_mux.o(i.configure_gpio_i2c_pins) refers to pin_mux.o(i.PORT_HAL_SetMuxMode) for PORT_HAL_SetMuxMode
    pin_mux.o(i.configure_gpio_pins) refers to pin_mux.o(i.PORT_HAL_SetPassiveFilterCmd) for PORT_HAL_SetPassiveFilterCmd
    pin_mux.o(i.configure_gpio_pins) refers to pin_mux.o(i.PORT_HAL_SetMuxMode) for PORT_HAL_SetMuxMode
    pin_mux.o(i.configure_gpio_pins) refers to pin_mux.o(i.PORT_HAL_SetPullMode) for PORT_HAL_SetPullMode
    pin_mux.o(i.configure_gpio_pins) refers to pin_mux.o(i.PORT_HAL_SetPullCmd) for PORT_HAL_SetPullCmd
    pin_mux.o(i.configure_gpio_pins) refers to pin_mux.o(i.PORT_HAL_SetDriveStrengthMode) for PORT_HAL_SetDriveStrengthMode
    pin_mux.o(i.configure_gpio_pins) refers to pin_mux.o(i.PORT_HAL_SetSlewRateMode) for PORT_HAL_SetSlewRateMode
    pin_mux.o(i.configure_i2c_pins) refers to pin_mux.o(i.PORT_HAL_SetMuxMode) for PORT_HAL_SetMuxMode
    pin_mux.o(i.configure_i2c_pins) refers to pin_mux.o(i.PORT_HAL_SetOpenDrainCmd) for PORT_HAL_SetOpenDrainCmd
    pin_mux.o(i.configure_i2s_pins) refers to pin_mux.o(i.PORT_HAL_SetMuxMode) for PORT_HAL_SetMuxMode
    pin_mux.o(i.configure_rtc_pins) refers to pin_mux.o(i.PORT_HAL_SetMuxMode) for PORT_HAL_SetMuxMode
    pin_mux.o(i.configure_sdhc_pins) refers to pin_mux.o(i.PORT_HAL_SetMuxMode) for PORT_HAL_SetMuxMode
    pin_mux.o(i.configure_sdhc_pins) refers to pin_mux.o(i.PORT_HAL_SetPullMode) for PORT_HAL_SetPullMode
    pin_mux.o(i.configure_sdhc_pins) refers to pin_mux.o(i.PORT_HAL_SetPullCmd) for PORT_HAL_SetPullCmd
    pin_mux.o(i.configure_sdhc_pins) refers to pin_mux.o(i.PORT_HAL_SetDriveStrengthMode) for PORT_HAL_SetDriveStrengthMode
    pin_mux.o(i.configure_spi_cs0_pins) refers to pin_mux.o(i.PORT_HAL_SetMuxMode) for PORT_HAL_SetMuxMode
    pin_mux.o(i.configure_spi_cs1_pins) refers to pin_mux.o(i.PORT_HAL_SetMuxMode) for PORT_HAL_SetMuxMode
    pin_mux.o(i.configure_spi_pins) refers to pin_mux.o(i.PORT_HAL_SetMuxMode) for PORT_HAL_SetMuxMode
    pin_mux.o(i.configure_uart_pins) refers to pin_mux.o(i.PORT_HAL_SetMuxMode) for PORT_HAL_SetMuxMode
    fsl_edma_driver.o(i.DMAMUX_HAL_SetChannelCmd) refers to assert.o(.text) for __aeabi_assert
    fsl_edma_driver.o(i.DMAMUX_HAL_SetChannelCmd) refers to fsl_edma_driver.o(.conststring) for .conststring
    fsl_edma_driver.o(i.EDMA_DRV_ClaimChannel) refers to fsl_edma_hal.o(i.EDMA_HAL_SetErrorIntCmd) for EDMA_HAL_SetErrorIntCmd
    fsl_edma_driver.o(i.EDMA_DRV_ClaimChannel) refers to fsl_edma_driver.o(i.DMAMUX_HAL_SetChannelCmd) for DMAMUX_HAL_SetChannelCmd
    fsl_edma_driver.o(i.EDMA_DRV_ClaimChannel) refers to assert.o(.text) for __aeabi_assert
    fsl_edma_driver.o(i.EDMA_DRV_ClaimChannel) refers to fsl_edma_hal.o(i.EDMA_HAL_HTCDClearReg) for EDMA_HAL_HTCDClearReg
    fsl_edma_driver.o(i.EDMA_DRV_ClaimChannel) refers to fsl_edma_common.o(.constdata) for g_edmaBase
    fsl_edma_driver.o(i.EDMA_DRV_ClaimChannel) refers to fsl_edma_driver.o(.conststring) for .conststring
    fsl_edma_driver.o(i.EDMA_DRV_ClearIntStatus) refers to fsl_edma_common.o(.constdata) for g_edmaBase
    fsl_edma_driver.o(i.EDMA_DRV_ConfigLoopTransfer) refers to assert.o(.text) for __aeabi_assert
    fsl_edma_driver.o(i.EDMA_DRV_ConfigLoopTransfer) refers to rt_memclr_w.o(.text) for __aeabi_memclr4
    fsl_edma_driver.o(i.EDMA_DRV_ConfigLoopTransfer) refers to fsl_edma_driver.o(i.EDMA_DRV_PrepareDescriptorTransfer) for EDMA_DRV_PrepareDescriptorTransfer
    fsl_edma_driver.o(i.EDMA_DRV_ConfigLoopTransfer) refers to fsl_edma_driver.o(i.EDMA_DRV_PrepareDescriptorScatterGather) for EDMA_DRV_PrepareDescriptorScatterGather
    fsl_edma_driver.o(i.EDMA_DRV_ConfigLoopTransfer) refers to fsl_edma_driver.o(i.EDMA_DRV_PushDescriptorToReg) for EDMA_DRV_PushDescriptorToReg
    fsl_edma_driver.o(i.EDMA_DRV_ConfigLoopTransfer) refers to fsl_edma_driver.o(.conststring) for .conststring
    fsl_edma_driver.o(i.EDMA_DRV_ConfigScatterGatherTransfer) refers to assert.o(.text) for __aeabi_assert
    fsl_edma_driver.o(i.EDMA_DRV_ConfigScatterGatherTransfer) refers to rt_memclr_w.o(.text) for __aeabi_memclr4
    fsl_edma_driver.o(i.EDMA_DRV_ConfigScatterGatherTransfer) refers to fsl_edma_driver.o(i.EDMA_DRV_PrepareDescriptorTransfer) for EDMA_DRV_PrepareDescriptorTransfer
    fsl_edma_driver.o(i.EDMA_DRV_ConfigScatterGatherTransfer) refers to fsl_edma_driver.o(i.EDMA_DRV_PushDescriptorToReg) for EDMA_DRV_PushDescriptorToReg
    fsl_edma_driver.o(i.EDMA_DRV_ConfigScatterGatherTransfer) refers to fsl_edma_driver.o(i.EDMA_DRV_PrepareDescriptorScatterGather) for EDMA_DRV_PrepareDescriptorScatterGather
    fsl_edma_driver.o(i.EDMA_DRV_ConfigScatterGatherTransfer) refers to fsl_edma_driver.o(.conststring) for .conststring
    fsl_edma_driver.o(i.EDMA_DRV_Deinit) refers to fsl_edma_driver.o(i.INT_SYS_DisableIRQ) for INT_SYS_DisableIRQ
    fsl_edma_driver.o(i.EDMA_DRV_Deinit) refers to fsl_edma_driver.o(i.EDMA_DRV_ReleaseChannel) for EDMA_DRV_ReleaseChannel
    fsl_edma_driver.o(i.EDMA_DRV_Deinit) refers to fsl_edma_driver.o(i.SIM_HAL_DisableClock) for SIM_HAL_DisableClock
    fsl_edma_driver.o(i.EDMA_DRV_Deinit) refers to fsl_edma_common.o(.constdata) for g_edmaErrIrqId
    fsl_edma_driver.o(i.EDMA_DRV_Deinit) refers to fsl_edma_driver.o(.data) for g_edma
    fsl_edma_driver.o(i.EDMA_DRV_ErrorIRQHandler) refers to fsl_edma_hal.o(i.EDMA_HAL_SetDmaRequestCmd) for EDMA_HAL_SetDmaRequestCmd
    fsl_edma_driver.o(i.EDMA_DRV_ErrorIRQHandler) refers to fsl_edma_driver.o(i.EDMA_DRV_ClearIntStatus) for EDMA_DRV_ClearIntStatus
    fsl_edma_driver.o(i.EDMA_DRV_ErrorIRQHandler) refers to fsl_edma_common.o(.constdata) for g_edmaBase
    fsl_edma_driver.o(i.EDMA_DRV_ErrorIRQHandler) refers to fsl_edma_driver.o(.data) for g_edma
    fsl_edma_driver.o(i.EDMA_DRV_IRQHandler) refers to fsl_edma_driver.o(i.EDMA_DRV_ClearIntStatus) for EDMA_DRV_ClearIntStatus
    fsl_edma_driver.o(i.EDMA_DRV_IRQHandler) refers to fsl_edma_driver.o(.data) for g_edma
    fsl_edma_driver.o(i.EDMA_DRV_Init) refers to rt_memclr_w.o(.text) for __aeabi_memclr4
    fsl_edma_driver.o(i.EDMA_DRV_Init) refers to fsl_edma_driver.o(i.SIM_HAL_EnableClock) for SIM_HAL_EnableClock
    fsl_edma_driver.o(i.EDMA_DRV_Init) refers to fsl_edma_hal.o(i.EDMA_HAL_Init) for EDMA_HAL_Init
    fsl_edma_driver.o(i.EDMA_DRV_Init) refers to fsl_edma_driver.o(i.INT_SYS_EnableIRQ) for INT_SYS_EnableIRQ
    fsl_edma_driver.o(i.EDMA_DRV_Init) refers to fsl_dmamux_hal.o(i.DMAMUX_HAL_Init) for DMAMUX_HAL_Init
    fsl_edma_driver.o(i.EDMA_DRV_Init) refers to fsl_edma_driver.o(.data) for g_edma
    fsl_edma_driver.o(i.EDMA_DRV_Init) refers to fsl_edma_common.o(.constdata) for g_edmaBase
    fsl_edma_driver.o(i.EDMA_DRV_PrepareDescriptorScatterGather) refers to fsl_edma_hal.o(i.EDMA_HAL_STCDSetScatterGatherLink) for EDMA_HAL_STCDSetScatterGatherLink
    fsl_edma_driver.o(i.EDMA_DRV_PrepareDescriptorTransfer) refers to fsl_edma_hal.o(i.EDMA_HAL_STCDSetBasicTransfer) for EDMA_HAL_STCDSetBasicTransfer
    fsl_edma_driver.o(i.EDMA_DRV_PrepareDescriptorTransfer) refers to fsl_edma_common.o(.constdata) for g_edmaBase
    fsl_edma_driver.o(i.EDMA_DRV_PushDescriptorToReg) refers to fsl_edma_hal.o(i.EDMA_HAL_HTCDClearReg) for EDMA_HAL_HTCDClearReg
    fsl_edma_driver.o(i.EDMA_DRV_PushDescriptorToReg) refers to fsl_edma_hal.o(i.EDMA_HAL_PushSTCDToHTCD) for EDMA_HAL_PushSTCDToHTCD
    fsl_edma_driver.o(i.EDMA_DRV_PushDescriptorToReg) refers to fsl_edma_common.o(.constdata) for g_edmaBase
    fsl_edma_driver.o(i.EDMA_DRV_ReleaseChannel) refers to fsl_edma_hal.o(i.EDMA_HAL_SetDmaRequestCmd) for EDMA_HAL_SetDmaRequestCmd
    fsl_edma_driver.o(i.EDMA_DRV_ReleaseChannel) refers to fsl_edma_common.o(.constdata) for g_edmaBase
    fsl_edma_driver.o(i.EDMA_DRV_ReleaseChannel) refers to fsl_edma_driver.o(.data) for g_edma
    fsl_edma_driver.o(i.EDMA_DRV_RequestChannel) refers to fsl_edma_driver.o(i.EDMA_DRV_ClaimChannel) for EDMA_DRV_ClaimChannel
    fsl_edma_driver.o(i.EDMA_DRV_RequestChannel) refers to fsl_edma_driver.o(.data) for g_edma
    fsl_edma_driver.o(i.EDMA_DRV_StartChannel) refers to fsl_edma_hal.o(i.EDMA_HAL_SetDmaRequestCmd) for EDMA_HAL_SetDmaRequestCmd
    fsl_edma_driver.o(i.EDMA_DRV_StartChannel) refers to fsl_edma_common.o(.constdata) for g_edmaBase
    fsl_edma_driver.o(i.EDMA_DRV_StopChannel) refers to fsl_edma_hal.o(i.EDMA_HAL_SetDmaRequestCmd) for EDMA_HAL_SetDmaRequestCmd
    fsl_edma_driver.o(i.EDMA_DRV_StopChannel) refers to fsl_edma_common.o(.constdata) for g_edmaBase
    fsl_edma_driver.o(i.INT_SYS_DisableIRQ) refers to assert.o(.text) for __aeabi_assert
    fsl_edma_driver.o(i.INT_SYS_DisableIRQ) refers to fsl_edma_driver.o(.conststring) for .conststring
    fsl_edma_driver.o(i.INT_SYS_EnableIRQ) refers to assert.o(.text) for __aeabi_assert
    fsl_edma_driver.o(i.INT_SYS_EnableIRQ) refers to fsl_edma_driver.o(.conststring) for .conststring
    fsl_edma_irq.o(i.DMA0_IRQHandler) refers to fsl_edma_driver.o(i.EDMA_DRV_IRQHandler) for EDMA_DRV_IRQHandler
    fsl_edma_irq.o(i.DMA10_IRQHandler) refers to fsl_edma_driver.o(i.EDMA_DRV_IRQHandler) for EDMA_DRV_IRQHandler
    fsl_edma_irq.o(i.DMA11_IRQHandler) refers to fsl_edma_driver.o(i.EDMA_DRV_IRQHandler) for EDMA_DRV_IRQHandler
    fsl_edma_irq.o(i.DMA12_IRQHandler) refers to fsl_edma_driver.o(i.EDMA_DRV_IRQHandler) for EDMA_DRV_IRQHandler
    fsl_edma_irq.o(i.DMA13_IRQHandler) refers to fsl_edma_driver.o(i.EDMA_DRV_IRQHandler) for EDMA_DRV_IRQHandler
    fsl_edma_irq.o(i.DMA14_IRQHandler) refers to fsl_edma_driver.o(i.EDMA_DRV_IRQHandler) for EDMA_DRV_IRQHandler
    fsl_edma_irq.o(i.DMA15_IRQHandler) refers to fsl_edma_driver.o(i.EDMA_DRV_IRQHandler) for EDMA_DRV_IRQHandler
    fsl_edma_irq.o(i.DMA1_IRQHandler) refers to fsl_edma_driver.o(i.EDMA_DRV_IRQHandler) for EDMA_DRV_IRQHandler
    fsl_edma_irq.o(i.DMA2_IRQHandler) refers to fsl_edma_driver.o(i.EDMA_DRV_IRQHandler) for EDMA_DRV_IRQHandler
    fsl_edma_irq.o(i.DMA3_IRQHandler) refers to fsl_edma_driver.o(i.EDMA_DRV_IRQHandler) for EDMA_DRV_IRQHandler
    fsl_edma_irq.o(i.DMA4_IRQHandler) refers to fsl_edma_driver.o(i.EDMA_DRV_IRQHandler) for EDMA_DRV_IRQHandler
    fsl_edma_irq.o(i.DMA5_IRQHandler) refers to fsl_edma_driver.o(i.EDMA_DRV_IRQHandler) for EDMA_DRV_IRQHandler
    fsl_edma_irq.o(i.DMA6_IRQHandler) refers to fsl_edma_driver.o(i.EDMA_DRV_IRQHandler) for EDMA_DRV_IRQHandler
    fsl_edma_irq.o(i.DMA7_IRQHandler) refers to fsl_edma_driver.o(i.EDMA_DRV_IRQHandler) for EDMA_DRV_IRQHandler
    fsl_edma_irq.o(i.DMA8_IRQHandler) refers to fsl_edma_driver.o(i.EDMA_DRV_IRQHandler) for EDMA_DRV_IRQHandler
    fsl_edma_irq.o(i.DMA9_IRQHandler) refers to fsl_edma_driver.o(i.EDMA_DRV_IRQHandler) for EDMA_DRV_IRQHandler
    fsl_gpio_driver.o(i.GPIO_DRV_ClearPinIntFlag) refers to assert.o(.text) for __aeabi_assert
    fsl_gpio_driver.o(i.GPIO_DRV_ClearPinIntFlag) refers to fsl_gpio_common.o(.constdata) for g_portBase
    fsl_gpio_driver.o(i.GPIO_DRV_ClearPinIntFlag) refers to fsl_gpio_driver.o(.conststring) for .conststring
    fsl_gpio_driver.o(i.GPIO_DRV_ClearPinIntFlag) refers to fsl_gpio_driver.o(i.GPIO_DRV_OutputPinInit) for i.GPIO_DRV_OutputPinInit
    fsl_gpio_driver.o(i.GPIO_DRV_ClearPinOutput) refers to assert.o(.text) for __aeabi_assert
    fsl_gpio_driver.o(i.GPIO_DRV_ClearPinOutput) refers to fsl_gpio_common.o(.constdata) for g_gpioBase
    fsl_gpio_driver.o(i.GPIO_DRV_ClearPinOutput) refers to fsl_gpio_driver.o(.conststring) for .conststring
    fsl_gpio_driver.o(i.GPIO_DRV_ClearPinOutput) refers to fsl_gpio_driver.o(i.GPIO_DRV_GetPinDir) for i.GPIO_DRV_GetPinDir
    fsl_gpio_driver.o(i.GPIO_DRV_GetPinDir) refers to assert.o(.text) for __aeabi_assert
    fsl_gpio_driver.o(i.GPIO_DRV_GetPinDir) refers to fsl_gpio_common.o(.constdata) for g_gpioBase
    fsl_gpio_driver.o(i.GPIO_DRV_GetPinDir) refers to fsl_gpio_driver.o(.conststring) for .conststring
    fsl_gpio_driver.o(i.GPIO_DRV_Init) refers to fsl_gpio_driver.o(i.GPIO_DRV_InputPinInit) for GPIO_DRV_InputPinInit
    fsl_gpio_driver.o(i.GPIO_DRV_Init) refers to fsl_gpio_driver.o(i.GPIO_DRV_OutputPinInit) for GPIO_DRV_OutputPinInit
    fsl_gpio_driver.o(i.GPIO_DRV_InputPinInit) refers to fsl_clock_mk64f12.o(i.CLOCK_SYS_EnablePortClock) for CLOCK_SYS_EnablePortClock
    fsl_gpio_driver.o(i.GPIO_DRV_InputPinInit) refers to fsl_gpio_driver.o(i.PORT_HAL_SetMuxMode) for PORT_HAL_SetMuxMode
    fsl_gpio_driver.o(i.GPIO_DRV_InputPinInit) refers to fsl_gpio_hal.o(i.GPIO_HAL_SetPinDir) for GPIO_HAL_SetPinDir
    fsl_gpio_driver.o(i.GPIO_DRV_InputPinInit) refers to assert.o(.text) for __aeabi_assert
    fsl_gpio_driver.o(i.GPIO_DRV_InputPinInit) refers to fsl_gpio_driver.o(i.PORT_HAL_SetDigitalFilterCmd) for PORT_HAL_SetDigitalFilterCmd
    fsl_gpio_driver.o(i.GPIO_DRV_InputPinInit) refers to fsl_gpio_driver.o(i.INT_SYS_EnableIRQ) for INT_SYS_EnableIRQ
    fsl_gpio_driver.o(i.GPIO_DRV_InputPinInit) refers to fsl_gpio_common.o(.constdata) for g_gpioBase
    fsl_gpio_driver.o(i.GPIO_DRV_InputPinInit) refers to fsl_gpio_driver.o(.conststring) for .conststring
    fsl_gpio_driver.o(i.GPIO_DRV_InputPinInit) refers to fsl_gpio_driver.o(i.GPIO_DRV_OutputPinInit) for i.GPIO_DRV_OutputPinInit
    fsl_gpio_driver.o(i.GPIO_DRV_IsPinIntPending) refers to assert.o(.text) for __aeabi_assert
    fsl_gpio_driver.o(i.GPIO_DRV_IsPinIntPending) refers to fsl_gpio_common.o(.constdata) for g_portBase
    fsl_gpio_driver.o(i.GPIO_DRV_IsPinIntPending) refers to fsl_gpio_driver.o(.conststring) for .conststring
    fsl_gpio_driver.o(i.GPIO_DRV_IsPinIntPending) refers to fsl_gpio_driver.o(i.GPIO_DRV_OutputPinInit) for i.GPIO_DRV_OutputPinInit
    fsl_gpio_driver.o(i.GPIO_DRV_OutputPinInit) refers to fsl_clock_mk64f12.o(i.CLOCK_SYS_EnablePortClock) for CLOCK_SYS_EnablePortClock
    fsl_gpio_driver.o(i.GPIO_DRV_OutputPinInit) refers to fsl_gpio_driver.o(i.PORT_HAL_SetMuxMode) for PORT_HAL_SetMuxMode
    fsl_gpio_driver.o(i.GPIO_DRV_OutputPinInit) refers to fsl_gpio_hal.o(i.GPIO_HAL_SetPinDir) for GPIO_HAL_SetPinDir
    fsl_gpio_driver.o(i.GPIO_DRV_OutputPinInit) refers to fsl_gpio_hal.o(i.GPIO_HAL_WritePinOutput) for GPIO_HAL_WritePinOutput
    fsl_gpio_driver.o(i.GPIO_DRV_OutputPinInit) refers to assert.o(.text) for __aeabi_assert
    fsl_gpio_driver.o(i.GPIO_DRV_OutputPinInit) refers to fsl_gpio_common.o(.constdata) for g_gpioBase
    fsl_gpio_driver.o(i.GPIO_DRV_OutputPinInit) refers to fsl_gpio_driver.o(.conststring) for .conststring
    fsl_gpio_driver.o(i.GPIO_DRV_ReadPinInput) refers to assert.o(.text) for __aeabi_assert
    fsl_gpio_driver.o(i.GPIO_DRV_ReadPinInput) refers to fsl_gpio_common.o(.constdata) for g_gpioBase
    fsl_gpio_driver.o(i.GPIO_DRV_ReadPinInput) refers to fsl_gpio_driver.o(.conststring) for .conststring
    fsl_gpio_driver.o(i.GPIO_DRV_ReadPinInput) refers to fsl_gpio_driver.o(i.GPIO_DRV_GetPinDir) for i.GPIO_DRV_GetPinDir
    fsl_gpio_driver.o(i.GPIO_DRV_SetDigitalFilterCmd) refers to fsl_gpio_driver.o(i.PORT_HAL_SetDigitalFilterCmd) for PORT_HAL_SetDigitalFilterCmd
    fsl_gpio_driver.o(i.GPIO_DRV_SetDigitalFilterCmd) refers to fsl_gpio_common.o(.constdata) for g_portBase
    fsl_gpio_driver.o(i.GPIO_DRV_SetPinDir) refers to fsl_gpio_hal.o(i.GPIO_HAL_SetPinDir) for GPIO_HAL_SetPinDir
    fsl_gpio_driver.o(i.GPIO_DRV_SetPinDir) refers to fsl_gpio_common.o(.constdata) for g_gpioBase
    fsl_gpio_driver.o(i.GPIO_DRV_SetPinOutput) refers to assert.o(.text) for __aeabi_assert
    fsl_gpio_driver.o(i.GPIO_DRV_SetPinOutput) refers to fsl_gpio_common.o(.constdata) for g_gpioBase
    fsl_gpio_driver.o(i.GPIO_DRV_SetPinOutput) refers to fsl_gpio_driver.o(.conststring) for .conststring
    fsl_gpio_driver.o(i.GPIO_DRV_SetPinOutput) refers to fsl_gpio_driver.o(i.GPIO_DRV_GetPinDir) for i.GPIO_DRV_GetPinDir
    fsl_gpio_driver.o(i.GPIO_DRV_TogglePinOutput) refers to assert.o(.text) for __aeabi_assert
    fsl_gpio_driver.o(i.GPIO_DRV_TogglePinOutput) refers to fsl_gpio_common.o(.constdata) for g_gpioBase
    fsl_gpio_driver.o(i.GPIO_DRV_TogglePinOutput) refers to fsl_gpio_driver.o(.conststring) for .conststring
    fsl_gpio_driver.o(i.GPIO_DRV_TogglePinOutput) refers to fsl_gpio_driver.o(i.GPIO_DRV_GetPinDir) for i.GPIO_DRV_GetPinDir
    fsl_gpio_driver.o(i.GPIO_DRV_WritePinOutput) refers to fsl_gpio_hal.o(i.GPIO_HAL_WritePinOutput) for GPIO_HAL_WritePinOutput
    fsl_gpio_driver.o(i.GPIO_DRV_WritePinOutput) refers to fsl_gpio_common.o(.constdata) for g_gpioBase
    fsl_gpio_driver.o(i.INT_SYS_EnableIRQ) refers to assert.o(.text) for __aeabi_assert
    fsl_gpio_driver.o(i.INT_SYS_EnableIRQ) refers to fsl_gpio_driver.o(.conststring) for .conststring
    fsl_gpio_driver.o(i.PORT_HAL_SetDigitalFilterCmd) refers to assert.o(.text) for __aeabi_assert
    fsl_gpio_driver.o(i.PORT_HAL_SetDigitalFilterCmd) refers to fsl_gpio_driver.o(.conststring) for .conststring
    fsl_gpio_driver.o(i.PORT_HAL_SetMuxMode) refers to assert.o(.text) for __aeabi_assert
    fsl_gpio_driver.o(i.PORT_HAL_SetMuxMode) refers to fsl_gpio_driver.o(.conststring) for .conststring
    fsl_rtc_driver.o(i.INT_SYS_DisableIRQ) refers to assert.o(.text) for __aeabi_assert
    fsl_rtc_driver.o(i.INT_SYS_DisableIRQ) refers to fsl_rtc_driver.o(.conststring) for .conststring
    fsl_rtc_driver.o(i.INT_SYS_EnableIRQ) refers to assert.o(.text) for __aeabi_assert
    fsl_rtc_driver.o(i.INT_SYS_EnableIRQ) refers to fsl_rtc_driver.o(.conststring) for .conststring
    fsl_rtc_driver.o(i.RTC_DRV_AlarmIntAction) refers to fsl_rtc_driver.o(i.RTC_DRV_SetAlarm) for RTC_DRV_SetAlarm
    fsl_rtc_driver.o(i.RTC_DRV_AlarmIntAction) refers to fsl_rtc_driver.o(i.RTC_HAL_SetAlarmReg) for RTC_HAL_SetAlarmReg
    fsl_rtc_driver.o(i.RTC_DRV_AlarmIntAction) refers to fsl_rtc_driver.o(i.RTC_HAL_SetAlarmIntCmd) for RTC_HAL_SetAlarmIntCmd
    fsl_rtc_driver.o(i.RTC_DRV_AlarmIntAction) refers to fsl_rtc_common.o(.constdata) for g_rtcBase
    fsl_rtc_driver.o(i.RTC_DRV_AlarmIntAction) refers to fsl_rtc_driver.o(.data) for s_rtcRepeatAlarmState
    fsl_rtc_driver.o(i.RTC_DRV_Deinit) refers to fsl_rtc_driver.o(i.INT_SYS_DisableIRQ) for INT_SYS_DisableIRQ
    fsl_rtc_driver.o(i.RTC_DRV_Deinit) refers to fsl_rtc_hal.o(i.RTC_HAL_Disable) for RTC_HAL_Disable
    fsl_rtc_driver.o(i.RTC_DRV_Deinit) refers to fsl_rtc_common.o(.constdata) for g_rtcIrqId
    fsl_rtc_driver.o(i.RTC_DRV_Deinit) refers to fsl_rtc_driver.o(.data) for s_rtcRepeatAlarmState
    fsl_rtc_driver.o(i.RTC_DRV_DeinitRepeatAlarm) refers to fsl_rtc_driver.o(.data) for s_rtcRepeatAlarmState
    fsl_rtc_driver.o(i.RTC_DRV_GetAlarm) refers to assert.o(.text) for __aeabi_assert
    fsl_rtc_driver.o(i.RTC_DRV_GetAlarm) refers to fsl_rtc_hal.o(i.RTC_HAL_ConvertSecsToDatetime) for RTC_HAL_ConvertSecsToDatetime
    fsl_rtc_driver.o(i.RTC_DRV_GetAlarm) refers to fsl_rtc_driver.o(.conststring) for .conststring
    fsl_rtc_driver.o(i.RTC_DRV_GetAlarm) refers to fsl_rtc_common.o(.constdata) for g_rtcBase
    fsl_rtc_driver.o(i.RTC_DRV_GetAlarm) refers to fsl_mcg_hal.o(.data) for g_xtalRtcClkFreq
    fsl_rtc_driver.o(i.RTC_DRV_GetAlarmIntCmd) refers to fsl_rtc_common.o(.constdata) for g_rtcBase
    fsl_rtc_driver.o(i.RTC_DRV_GetDatetime) refers to assert.o(.text) for __aeabi_assert
    fsl_rtc_driver.o(i.RTC_DRV_GetDatetime) refers to fsl_rtc_hal.o(i.RTC_HAL_GetDatetimeInSecs) for RTC_HAL_GetDatetimeInSecs
    fsl_rtc_driver.o(i.RTC_DRV_GetDatetime) refers to lludivv7m.o(.text) for __aeabi_uldivmod
    fsl_rtc_driver.o(i.RTC_DRV_GetDatetime) refers to fsl_rtc_hal.o(i.RTC_HAL_ConvertSecsToDatetime) for RTC_HAL_ConvertSecsToDatetime
    fsl_rtc_driver.o(i.RTC_DRV_GetDatetime) refers to fsl_rtc_driver.o(.conststring) for .conststring
    fsl_rtc_driver.o(i.RTC_DRV_GetDatetime) refers to fsl_rtc_common.o(.constdata) for g_rtcBase
    fsl_rtc_driver.o(i.RTC_DRV_GetDatetime) refers to fsl_mcg_hal.o(.data) for g_xtalRtcClkFreq
    fsl_rtc_driver.o(i.RTC_DRV_GetTimeCompensation) refers to fsl_rtc_common.o(.constdata) for g_rtcBase
    fsl_rtc_driver.o(i.RTC_DRV_Init) refers to fsl_rtc_hal.o(i.RTC_HAL_Init) for RTC_HAL_Init
    fsl_rtc_driver.o(i.RTC_DRV_Init) refers to fsl_rtc_hal.o(i.RTC_HAL_Enable) for RTC_HAL_Enable
    fsl_rtc_driver.o(i.RTC_DRV_Init) refers to fsl_rtc_driver.o(i.__NVIC_ClearPendingIRQ) for __NVIC_ClearPendingIRQ
    fsl_rtc_driver.o(i.RTC_DRV_Init) refers to fsl_rtc_driver.o(i.INT_SYS_EnableIRQ) for INT_SYS_EnableIRQ
    fsl_rtc_driver.o(i.RTC_DRV_Init) refers to fsl_rtc_common.o(.constdata) for g_rtcBase
    fsl_rtc_driver.o(i.RTC_DRV_InitRepeatAlarm) refers to assert.o(.text) for __aeabi_assert
    fsl_rtc_driver.o(i.RTC_DRV_InitRepeatAlarm) refers to rt_memclr.o(.text) for __aeabi_memclr
    fsl_rtc_driver.o(i.RTC_DRV_InitRepeatAlarm) refers to fsl_rtc_driver.o(.conststring) for .conststring
    fsl_rtc_driver.o(i.RTC_DRV_InitRepeatAlarm) refers to fsl_rtc_driver.o(.data) for s_rtcRepeatAlarmState
    fsl_rtc_driver.o(i.RTC_DRV_IsAlarmPending) refers to fsl_rtc_common.o(.constdata) for g_rtcBase
    fsl_rtc_driver.o(i.RTC_DRV_IsCounterEnabled) refers to fsl_rtc_common.o(.constdata) for g_rtcBase
    fsl_rtc_driver.o(i.RTC_DRV_SecsIntAction) refers to fsl_rtc_driver.o(i.RTC_HAL_SetSecsIntCmd) for RTC_HAL_SetSecsIntCmd
    fsl_rtc_driver.o(i.RTC_DRV_SecsIntAction) refers to fsl_rtc_common.o(.constdata) for g_rtcBase
    fsl_rtc_driver.o(i.RTC_DRV_SetAlarm) refers to assert.o(.text) for __aeabi_assert
    fsl_rtc_driver.o(i.RTC_DRV_SetAlarm) refers to fsl_rtc_hal.o(i.RTC_HAL_IsDatetimeCorrectFormat) for RTC_HAL_IsDatetimeCorrectFormat
    fsl_rtc_driver.o(i.RTC_DRV_SetAlarm) refers to fsl_rtc_hal.o(i.RTC_HAL_ConvertDatetimeToSecs) for RTC_HAL_ConvertDatetimeToSecs
    fsl_rtc_driver.o(i.RTC_DRV_SetAlarm) refers to fsl_rtc_driver.o(i.RTC_HAL_SetAlarmReg) for RTC_HAL_SetAlarmReg
    fsl_rtc_driver.o(i.RTC_DRV_SetAlarm) refers to fsl_rtc_driver.o(i.RTC_HAL_SetAlarmIntCmd) for RTC_HAL_SetAlarmIntCmd
    fsl_rtc_driver.o(i.RTC_DRV_SetAlarm) refers to fsl_rtc_driver.o(.conststring) for .conststring
    fsl_rtc_driver.o(i.RTC_DRV_SetAlarm) refers to fsl_rtc_common.o(.constdata) for g_rtcBase
    fsl_rtc_driver.o(i.RTC_DRV_SetAlarm) refers to fsl_mcg_hal.o(.data) for g_xtalRtcClkFreq
    fsl_rtc_driver.o(i.RTC_DRV_SetAlarmIntCmd) refers to fsl_rtc_driver.o(i.RTC_HAL_SetAlarmIntCmd) for RTC_HAL_SetAlarmIntCmd
    fsl_rtc_driver.o(i.RTC_DRV_SetAlarmIntCmd) refers to fsl_rtc_common.o(.constdata) for g_rtcBase
    fsl_rtc_driver.o(i.RTC_DRV_SetAlarmRepeat) refers to assert.o(.text) for __aeabi_assert
    fsl_rtc_driver.o(i.RTC_DRV_SetAlarmRepeat) refers to fsl_rtc_driver.o(i.RTC_DRV_SetAlarm) for RTC_DRV_SetAlarm
    fsl_rtc_driver.o(i.RTC_DRV_SetAlarmRepeat) refers to fsl_rtc_driver.o(.data) for s_rtcRepeatAlarmState
    fsl_rtc_driver.o(i.RTC_DRV_SetAlarmRepeat) refers to fsl_rtc_driver.o(.conststring) for .conststring
    fsl_rtc_driver.o(i.RTC_DRV_SetDatetime) refers to assert.o(.text) for __aeabi_assert
    fsl_rtc_driver.o(i.RTC_DRV_SetDatetime) refers to fsl_rtc_hal.o(i.RTC_HAL_IsDatetimeCorrectFormat) for RTC_HAL_IsDatetimeCorrectFormat
    fsl_rtc_driver.o(i.RTC_DRV_SetDatetime) refers to fsl_rtc_hal.o(i.RTC_HAL_ConvertDatetimeToSecs) for RTC_HAL_ConvertDatetimeToSecs
    fsl_rtc_driver.o(i.RTC_DRV_SetDatetime) refers to fsl_rtc_driver.o(i.RTC_HAL_EnableCounter) for RTC_HAL_EnableCounter
    fsl_rtc_driver.o(i.RTC_DRV_SetDatetime) refers to fsl_rtc_driver.o(.conststring) for .conststring
    fsl_rtc_driver.o(i.RTC_DRV_SetDatetime) refers to fsl_rtc_common.o(.constdata) for g_rtcBase
    fsl_rtc_driver.o(i.RTC_DRV_SetDatetime) refers to fsl_mcg_hal.o(.data) for g_xtalRtcClkFreq
    fsl_rtc_driver.o(i.RTC_DRV_SetSecsIntCmd) refers to fsl_rtc_driver.o(i.RTC_HAL_SetSecsIntCmd) for RTC_HAL_SetSecsIntCmd
    fsl_rtc_driver.o(i.RTC_DRV_SetSecsIntCmd) refers to fsl_rtc_common.o(.constdata) for g_rtcBase
    fsl_rtc_driver.o(i.RTC_DRV_SetTimeCompensation) refers to fsl_rtc_common.o(.constdata) for g_rtcBase
    fsl_dspi_hal.o(i.DSPI_HAL_CalculateDelay) refers to fsl_dspi_hal.o(i.DSPI_HAL_SetDelay) for DSPI_HAL_SetDelay
    fsl_dspi_hal.o(i.DSPI_HAL_CalculateDelay) refers to fsl_dspi_hal.o(.constdata) for s_delayPrescaler
    fsl_dspi_hal.o(i.DSPI_HAL_SetBaudRate) refers to fsl_dspi_hal.o(.constdata) for s_baudratePrescaler
    fsl_edma_hal.o(i.EDMA_HAL_HTCDGetBeginMajorCount) refers to assert.o(.text) for __aeabi_assert
    fsl_edma_hal.o(i.EDMA_HAL_HTCDGetBeginMajorCount) refers to fsl_edma_hal.o(.conststring) for .conststring
    fsl_edma_hal.o(i.EDMA_HAL_HTCDGetCurrentMajorCount) refers to assert.o(.text) for __aeabi_assert
    fsl_edma_hal.o(i.EDMA_HAL_HTCDGetCurrentMajorCount) refers to fsl_edma_hal.o(.conststring) for .conststring
    fsl_edma_hal.o(i.EDMA_HAL_HTCDGetFinishedBytes) refers to assert.o(.text) for __aeabi_assert
    fsl_edma_hal.o(i.EDMA_HAL_HTCDGetFinishedBytes) refers to fsl_edma_hal.o(i.EDMA_HAL_HTCDGetNbytes) for EDMA_HAL_HTCDGetNbytes
    fsl_edma_hal.o(i.EDMA_HAL_HTCDGetFinishedBytes) refers to fsl_edma_hal.o(i.EDMA_HAL_HTCDGetBeginMajorCount) for EDMA_HAL_HTCDGetBeginMajorCount
    fsl_edma_hal.o(i.EDMA_HAL_HTCDGetFinishedBytes) refers to fsl_edma_hal.o(i.EDMA_HAL_HTCDGetCurrentMajorCount) for EDMA_HAL_HTCDGetCurrentMajorCount
    fsl_edma_hal.o(i.EDMA_HAL_HTCDGetFinishedBytes) refers to fsl_edma_hal.o(.conststring) for .conststring
    fsl_edma_hal.o(i.EDMA_HAL_HTCDGetNbytes) refers to assert.o(.text) for __aeabi_assert
    fsl_edma_hal.o(i.EDMA_HAL_HTCDGetNbytes) refers to fsl_edma_hal.o(.conststring) for .conststring
    fsl_edma_hal.o(i.EDMA_HAL_HTCDGetUnfinishedBytes) refers to assert.o(.text) for __aeabi_assert
    fsl_edma_hal.o(i.EDMA_HAL_HTCDGetUnfinishedBytes) refers to fsl_edma_hal.o(i.EDMA_HAL_HTCDGetNbytes) for EDMA_HAL_HTCDGetNbytes
    fsl_edma_hal.o(i.EDMA_HAL_HTCDGetUnfinishedBytes) refers to fsl_edma_hal.o(.conststring) for .conststring
    fsl_edma_hal.o(i.EDMA_HAL_HTCDSetAttribute) refers to assert.o(.text) for __aeabi_assert
    fsl_edma_hal.o(i.EDMA_HAL_HTCDSetAttribute) refers to fsl_edma_hal.o(.conststring) for .conststring
    fsl_edma_hal.o(i.EDMA_HAL_HTCDSetChannelMinorLink) refers to assert.o(.text) for __aeabi_assert
    fsl_edma_hal.o(i.EDMA_HAL_HTCDSetChannelMinorLink) refers to fsl_edma_hal.o(.conststring) for .conststring
    fsl_edma_hal.o(i.EDMA_HAL_HTCDSetMajorCount) refers to assert.o(.text) for __aeabi_assert
    fsl_edma_hal.o(i.EDMA_HAL_HTCDSetMajorCount) refers to fsl_edma_hal.o(.conststring) for .conststring
    fsl_edma_hal.o(i.EDMA_HAL_HTCDSetMinorLoopOffset) refers to assert.o(.text) for __aeabi_assert
    fsl_edma_hal.o(i.EDMA_HAL_HTCDSetMinorLoopOffset) refers to fsl_edma_hal.o(.conststring) for .conststring
    fsl_edma_hal.o(i.EDMA_HAL_HTCDSetNbytes) refers to assert.o(.text) for __aeabi_assert
    fsl_edma_hal.o(i.EDMA_HAL_HTCDSetNbytes) refers to fsl_edma_hal.o(.conststring) for .conststring
    fsl_edma_hal.o(i.EDMA_HAL_HTCDSetScatterGatherLink) refers to assert.o(.text) for __aeabi_assert
    fsl_edma_hal.o(i.EDMA_HAL_HTCDSetScatterGatherLink) refers to fsl_edma_hal.o(.conststring) for .conststring
    fsl_edma_hal.o(i.EDMA_HAL_Init) refers to fsl_edma_hal.o(i.EDMA_HAL_HTCDClearReg) for EDMA_HAL_HTCDClearReg
    fsl_edma_hal.o(i.EDMA_HAL_PushSTCDToHTCD) refers to assert.o(.text) for __aeabi_assert
    fsl_edma_hal.o(i.EDMA_HAL_PushSTCDToHTCD) refers to fsl_edma_hal.o(.conststring) for .conststring
    fsl_edma_hal.o(i.EDMA_HAL_STCDSetAttribute) refers to assert.o(.text) for __aeabi_assert
    fsl_edma_hal.o(i.EDMA_HAL_STCDSetAttribute) refers to fsl_edma_hal.o(.conststring) for .conststring
    fsl_edma_hal.o(i.EDMA_HAL_STCDSetBasicTransfer) refers to assert.o(.text) for __aeabi_assert
    fsl_edma_hal.o(i.EDMA_HAL_STCDSetBasicTransfer) refers to fsl_edma_hal.o(i.EDMA_HAL_STCDSetAttribute) for EDMA_HAL_STCDSetAttribute
    fsl_edma_hal.o(i.EDMA_HAL_STCDSetBasicTransfer) refers to fsl_edma_hal.o(i.EDMA_HAL_STCDSetNbytes) for EDMA_HAL_STCDSetNbytes
    fsl_edma_hal.o(i.EDMA_HAL_STCDSetBasicTransfer) refers to fsl_edma_hal.o(i.EDMA_HAL_STCDSetMajorCount) for EDMA_HAL_STCDSetMajorCount
    fsl_edma_hal.o(i.EDMA_HAL_STCDSetBasicTransfer) refers to fsl_edma_hal.o(.conststring) for .conststring
    fsl_edma_hal.o(i.EDMA_HAL_STCDSetBasicTransfer) refers to fsl_edma_hal.o(i.EDMA_HAL_STCDSetScatterGatherLink) for i.EDMA_HAL_STCDSetScatterGatherLink
    fsl_edma_hal.o(i.EDMA_HAL_STCDSetChannelMinorLink) refers to assert.o(.text) for __aeabi_assert
    fsl_edma_hal.o(i.EDMA_HAL_STCDSetChannelMinorLink) refers to fsl_edma_hal.o(.conststring) for .conststring
    fsl_edma_hal.o(i.EDMA_HAL_STCDSetMajorCount) refers to assert.o(.text) for __aeabi_assert
    fsl_edma_hal.o(i.EDMA_HAL_STCDSetMajorCount) refers to fsl_edma_hal.o(.conststring) for .conststring
    fsl_edma_hal.o(i.EDMA_HAL_STCDSetMinorLoopOffset) refers to assert.o(.text) for __aeabi_assert
    fsl_edma_hal.o(i.EDMA_HAL_STCDSetMinorLoopOffset) refers to fsl_edma_hal.o(.conststring) for .conststring
    fsl_edma_hal.o(i.EDMA_HAL_STCDSetNbytes) refers to assert.o(.text) for __aeabi_assert
    fsl_edma_hal.o(i.EDMA_HAL_STCDSetNbytes) refers to fsl_edma_hal.o(.conststring) for .conststring
    fsl_edma_hal.o(i.EDMA_HAL_STCDSetScatterGatherLink) refers to assert.o(.text) for __aeabi_assert
    fsl_edma_hal.o(i.EDMA_HAL_STCDSetScatterGatherLink) refers to fsl_edma_hal.o(.conststring) for .conststring
    fsl_gpio_hal.o(i.GPIO_HAL_SetPinDir) refers to assert.o(.text) for __aeabi_assert
    fsl_gpio_hal.o(i.GPIO_HAL_SetPinDir) refers to fsl_gpio_hal.o(.conststring) for .conststring
    fsl_gpio_hal.o(i.GPIO_HAL_WritePinOutput) refers to assert.o(.text) for __aeabi_assert
    fsl_gpio_hal.o(i.GPIO_HAL_WritePinOutput) refers to fsl_gpio_hal.o(.conststring) for .conststring
    fsl_i2c_hal.o(i.I2C_HAL_MasterReceiveDataPolling) refers to fsl_i2c_hal.o(i.I2C_HAL_SetDirMode) for I2C_HAL_SetDirMode
    fsl_i2c_hal.o(i.I2C_HAL_MasterReceiveDataPolling) refers to fsl_i2c_hal.o(i.I2C_HAL_SendStart) for I2C_HAL_SendStart
    fsl_i2c_hal.o(i.I2C_HAL_MasterReceiveDataPolling) refers to fsl_i2c_hal.o(i.I2C_HAL_WriteByteBlocking) for I2C_HAL_WriteByteBlocking
    fsl_i2c_hal.o(i.I2C_HAL_MasterReceiveDataPolling) refers to fsl_i2c_hal.o(i.I2C_HAL_SendStop) for I2C_HAL_SendStop
    fsl_i2c_hal.o(i.I2C_HAL_MasterReceiveDataPolling) refers to fsl_i2c_hal.o(i.I2C_HAL_SendNak) for I2C_HAL_SendNak
    fsl_i2c_hal.o(i.I2C_HAL_MasterReceiveDataPolling) refers to fsl_i2c_hal.o(i.I2C_HAL_SendAck) for I2C_HAL_SendAck
    fsl_i2c_hal.o(i.I2C_HAL_MasterReceiveDataPolling) refers to fsl_i2c_hal.o(i.I2C_HAL_ReadByteBlocking) for I2C_HAL_ReadByteBlocking
    fsl_i2c_hal.o(i.I2C_HAL_MasterReceiveDataPolling) refers to fsl_i2c_hal.o(i.I2C_HAL_ReadByte) for I2C_HAL_ReadByte
    fsl_i2c_hal.o(i.I2C_HAL_MasterSendDataPolling) refers to fsl_i2c_hal.o(i.I2C_HAL_SetDirMode) for I2C_HAL_SetDirMode
    fsl_i2c_hal.o(i.I2C_HAL_MasterSendDataPolling) refers to fsl_i2c_hal.o(i.I2C_HAL_SendStart) for I2C_HAL_SendStart
    fsl_i2c_hal.o(i.I2C_HAL_MasterSendDataPolling) refers to fsl_i2c_hal.o(i.I2C_HAL_WriteByteBlocking) for I2C_HAL_WriteByteBlocking
    fsl_i2c_hal.o(i.I2C_HAL_MasterSendDataPolling) refers to fsl_i2c_hal.o(i.I2C_HAL_SendStop) for I2C_HAL_SendStop
    fsl_i2c_hal.o(i.I2C_HAL_SendStop) refers to assert.o(.text) for __aeabi_assert
    fsl_i2c_hal.o(i.I2C_HAL_SendStop) refers to fsl_i2c_hal.o(i.I2C_HAL_GetStatusFlag) for I2C_HAL_GetStatusFlag
    fsl_i2c_hal.o(i.I2C_HAL_SendStop) refers to fsl_i2c_hal.o(.conststring) for .conststring
    fsl_i2c_hal.o(i.I2C_HAL_SetBaudRate) refers to fsl_i2c_hal.o(.constdata) for kI2CDividerTable
    fsl_i2c_hal.o(i.I2C_HAL_SlaveReceiveDataPolling) refers to fsl_i2c_hal.o(i.I2C_HAL_GetStartFlag) for I2C_HAL_GetStartFlag
    fsl_i2c_hal.o(i.I2C_HAL_SlaveReceiveDataPolling) refers to fsl_i2c_hal.o(i.I2C_HAL_ClearStartFlag) for I2C_HAL_ClearStartFlag
    fsl_i2c_hal.o(i.I2C_HAL_SlaveReceiveDataPolling) refers to fsl_i2c_hal.o(i.I2C_HAL_GetStatusFlag) for I2C_HAL_GetStatusFlag
    fsl_i2c_hal.o(i.I2C_HAL_SlaveReceiveDataPolling) refers to fsl_i2c_hal.o(i.I2C_HAL_IsIntPending) for I2C_HAL_IsIntPending
    fsl_i2c_hal.o(i.I2C_HAL_SlaveReceiveDataPolling) refers to fsl_i2c_hal.o(i.I2C_HAL_ClearInt) for I2C_HAL_ClearInt
    fsl_i2c_hal.o(i.I2C_HAL_SlaveReceiveDataPolling) refers to fsl_i2c_hal.o(i.I2C_HAL_SetDirMode) for I2C_HAL_SetDirMode
    fsl_i2c_hal.o(i.I2C_HAL_SlaveReceiveDataPolling) refers to fsl_i2c_hal.o(i.I2C_HAL_ReadByte) for I2C_HAL_ReadByte
    fsl_i2c_hal.o(i.I2C_HAL_SlaveSendDataPolling) refers to fsl_i2c_hal.o(i.I2C_HAL_GetStartFlag) for I2C_HAL_GetStartFlag
    fsl_i2c_hal.o(i.I2C_HAL_SlaveSendDataPolling) refers to fsl_i2c_hal.o(i.I2C_HAL_ClearStartFlag) for I2C_HAL_ClearStartFlag
    fsl_i2c_hal.o(i.I2C_HAL_SlaveSendDataPolling) refers to fsl_i2c_hal.o(i.I2C_HAL_GetStatusFlag) for I2C_HAL_GetStatusFlag
    fsl_i2c_hal.o(i.I2C_HAL_SlaveSendDataPolling) refers to fsl_i2c_hal.o(i.I2C_HAL_IsIntPending) for I2C_HAL_IsIntPending
    fsl_i2c_hal.o(i.I2C_HAL_SlaveSendDataPolling) refers to fsl_i2c_hal.o(i.I2C_HAL_ClearInt) for I2C_HAL_ClearInt
    fsl_i2c_hal.o(i.I2C_HAL_SlaveSendDataPolling) refers to fsl_i2c_hal.o(i.I2C_HAL_SetDirMode) for I2C_HAL_SetDirMode
    fsl_lptmr_hal.o(i.LPTMR_HAL_Init) refers to fsl_lptmr_hal.o(i.LPTMR_HAL_SetTimerWorkingMode) for LPTMR_HAL_SetTimerWorkingMode
    fsl_lptmr_hal.o(i.LPTMR_HAL_Init) refers to fsl_lptmr_hal.o(i.LPTMR_HAL_SetPrescalerMode) for LPTMR_HAL_SetPrescalerMode
    fsl_mcg_hal.o(i.CLOCK_HAL_GetAvailableFrdiv) refers to fsl_mcg_hal.o(.constdata) for freq_kHz
    fsl_mcg_hal.o(i.CLOCK_HAL_GetFixedFreqClk) refers to fsl_mcg_hal.o(i.CLOCK_HAL_GetFllRefClk) for CLOCK_HAL_GetFllRefClk
    fsl_mcg_hal.o(i.CLOCK_HAL_GetFixedFreqClk) refers to fsl_mcg_hal.o(i.CLOCK_HAL_GetOutClk) for CLOCK_HAL_GetOutClk
    fsl_mcg_hal.o(i.CLOCK_HAL_GetFllClk) refers to fsl_mcg_hal.o(i.CLOCK_HAL_GetFllRefClk) for CLOCK_HAL_GetFllRefClk
    fsl_mcg_hal.o(i.CLOCK_HAL_GetFllClk) refers to fsl_mcg_hal.o(i.CLOCK_HAL_TestFllFreq) for CLOCK_HAL_TestFllFreq
    fsl_mcg_hal.o(i.CLOCK_HAL_GetFllRefClk) refers to fsl_mcg_hal.o(i.CLOCK_HAL_GetMcgExternalClkFreq) for CLOCK_HAL_GetMcgExternalClkFreq
    fsl_mcg_hal.o(i.CLOCK_HAL_GetFllRefClk) refers to fsl_mcg_hal.o(i.CLOCK_HAL_TestFllExternalRefFreq) for CLOCK_HAL_TestFllExternalRefFreq
    fsl_mcg_hal.o(i.CLOCK_HAL_GetFllRefClk) refers to fsl_mcg_hal.o(.data) for g_slowInternalRefClkFreq
    fsl_mcg_hal.o(i.CLOCK_HAL_GetInternalRefClk) refers to fsl_mcg_hal.o(.data) for g_slowInternalRefClkFreq
    fsl_mcg_hal.o(i.CLOCK_HAL_GetMcgExternalClkFreq) refers to fsl_mcg_hal.o(i.CLOCK_HAL_TestOscFreq) for CLOCK_HAL_TestOscFreq
    fsl_mcg_hal.o(i.CLOCK_HAL_GetOutClk) refers to fsl_mcg_hal.o(i.CLOCK_HAL_GetPll0Clk) for CLOCK_HAL_GetPll0Clk
    fsl_mcg_hal.o(i.CLOCK_HAL_GetOutClk) refers to fsl_mcg_hal.o(i.CLOCK_HAL_GetFllClk) for CLOCK_HAL_GetFllClk
    fsl_mcg_hal.o(i.CLOCK_HAL_GetOutClk) refers to fsl_mcg_hal.o(i.CLOCK_HAL_GetInternalRefClk) for CLOCK_HAL_GetInternalRefClk
    fsl_mcg_hal.o(i.CLOCK_HAL_GetOutClk) refers to fsl_mcg_hal.o(i.CLOCK_HAL_GetMcgExternalClkFreq) for CLOCK_HAL_GetMcgExternalClkFreq
    fsl_mcg_hal.o(i.CLOCK_HAL_GetPll0Clk) refers to fsl_mcg_hal.o(i.CLOCK_HAL_GetPll0RefFreq) for CLOCK_HAL_GetPll0RefFreq
    fsl_mcg_hal.o(i.CLOCK_HAL_GetPll0RefFreq) refers to fsl_mcg_hal.o(i.CLOCK_HAL_GetMcgExternalClkFreq) for CLOCK_HAL_GetMcgExternalClkFreq
    fsl_mcg_hal.o(i.CLOCK_HAL_TestFllFreq) refers to fsl_mcg_hal.o(.constdata) for fllFactorTable
    fsl_mcg_hal.o(i.CLOCK_HAL_TestOscFreq) refers to fsl_mcg_hal.o(.data) for g_xtal0ClkFreq
    fsl_mcg_hal.o(i.CLOCK_HAL_TrimInternalRefClk) refers to fsl_mcg_hal.o(.data) for g_fastInternalRefClkFreq
    fsl_mcg_hal.o(i.CLOCK_HAL_UpdateFastClkInternalRefDiv) refers to fsl_mcg_hal.o(i.CLOCK_HAL_SetInternalRefClkMode) for CLOCK_HAL_SetInternalRefClkMode
    fsl_mcg_hal.o(i.CLOCK_HAL_UpdateFastClkInternalRefDiv) refers to fsl_mcg_hal.o(i.CLOCK_HAL_GetInternalRefClkMode) for CLOCK_HAL_GetInternalRefClkMode
    fsl_mcg_hal_modes.o(i.CLOCK_HAL_GetMcgMode) refers to fsl_mcg_hal_modes.o(i.CLOCK_HAL_GetClkOutStat) for CLOCK_HAL_GetClkOutStat
    fsl_mcg_hal_modes.o(i.CLOCK_HAL_GetMcgMode) refers to fsl_mcg_hal_modes.o(i.CLOCK_HAL_GetFllSrc) for CLOCK_HAL_GetFllSrc
    fsl_mcg_hal_modes.o(i.CLOCK_HAL_GetMcgMode) refers to fsl_mcg_hal_modes.o(i.CLOCK_HAL_IsPllSelected) for CLOCK_HAL_IsPllSelected
    fsl_mcg_hal_modes.o(i.CLOCK_HAL_PrepareOsc) refers to fsl_mcg_hal_modes.o(i.CLOCK_HAL_IsOsc0Stable) for CLOCK_HAL_IsOsc0Stable
    fsl_mcg_hal_modes.o(i.CLOCK_HAL_SetBlpeMode) refers to fsl_mcg_hal_modes.o(i.CLOCK_HAL_GetMcgMode) for CLOCK_HAL_GetMcgMode
    fsl_mcg_hal_modes.o(i.CLOCK_HAL_SetBlpeMode) refers to fsl_mcg_hal.o(i.CLOCK_HAL_TestOscFreq) for CLOCK_HAL_TestOscFreq
    fsl_mcg_hal_modes.o(i.CLOCK_HAL_SetBlpeMode) refers to fsl_mcg_hal_modes.o(i.CLOCK_HAL_PrepareOsc) for CLOCK_HAL_PrepareOsc
    fsl_mcg_hal_modes.o(i.CLOCK_HAL_SetBlpiMode) refers to fsl_mcg_hal_modes.o(i.CLOCK_HAL_GetMcgMode) for CLOCK_HAL_GetMcgMode
    fsl_mcg_hal_modes.o(i.CLOCK_HAL_SetBlpiMode) refers to fsl_mcg_hal.o(i.CLOCK_HAL_UpdateFastClkInternalRefDiv) for CLOCK_HAL_UpdateFastClkInternalRefDiv
    fsl_mcg_hal_modes.o(i.CLOCK_HAL_SetBlpiMode) refers to fsl_mcg_hal_modes.o(i.CLOCK_HAL_GetInternalRefClkMode) for CLOCK_HAL_GetInternalRefClkMode
    fsl_mcg_hal_modes.o(i.CLOCK_HAL_SetBlpiMode) refers to fsl_mcg_hal.o(.data) for g_fastInternalRefClkFreq
    fsl_mcg_hal_modes.o(i.CLOCK_HAL_SetFbeMode) refers to fsl_mcg_hal_modes.o(i.CLOCK_HAL_GetMcgMode) for CLOCK_HAL_GetMcgMode
    fsl_mcg_hal_modes.o(i.CLOCK_HAL_SetFbeMode) refers to fsl_mcg_hal.o(i.CLOCK_HAL_TestOscFreq) for CLOCK_HAL_TestOscFreq
    fsl_mcg_hal_modes.o(i.CLOCK_HAL_SetFbeMode) refers to fsl_mcg_hal_modes.o(i.CLOCK_HAL_IsPllSelected) for CLOCK_HAL_IsPllSelected
    fsl_mcg_hal_modes.o(i.CLOCK_HAL_SetFbeMode) refers to fsl_mcg_hal_modes.o(i.CLOCK_HAL_GetFllSrc) for CLOCK_HAL_GetFllSrc
    fsl_mcg_hal_modes.o(i.CLOCK_HAL_SetFbeMode) refers to fsl_mcg_hal_modes.o(i.CLOCK_HAL_IsOsc0Stable) for CLOCK_HAL_IsOsc0Stable
    fsl_mcg_hal_modes.o(i.CLOCK_HAL_SetFbeMode) refers to fsl_mcg_hal_modes.o(i.CLOCK_HAL_GetClkOutStat) for CLOCK_HAL_GetClkOutStat
    fsl_mcg_hal_modes.o(i.CLOCK_HAL_SetFbiMode) refers to fsl_mcg_hal_modes.o(i.CLOCK_HAL_GetMcgMode) for CLOCK_HAL_GetMcgMode
    fsl_mcg_hal_modes.o(i.CLOCK_HAL_SetFbiMode) refers to fsl_mcg_hal_modes.o(i.CLOCK_HAL_GetFllSrc) for CLOCK_HAL_GetFllSrc
    fsl_mcg_hal_modes.o(i.CLOCK_HAL_SetFbiMode) refers to fsl_mcg_hal.o(i.CLOCK_HAL_UpdateFastClkInternalRefDiv) for CLOCK_HAL_UpdateFastClkInternalRefDiv
    fsl_mcg_hal_modes.o(i.CLOCK_HAL_SetFbiMode) refers to fsl_mcg_hal_modes.o(i.CLOCK_HAL_GetInternalRefClkMode) for CLOCK_HAL_GetInternalRefClkMode
    fsl_mcg_hal_modes.o(i.CLOCK_HAL_SetFbiMode) refers to fsl_mcg_hal_modes.o(i.CLOCK_HAL_GetClkOutStat) for CLOCK_HAL_GetClkOutStat
    fsl_mcg_hal_modes.o(i.CLOCK_HAL_SetFbiMode) refers to fsl_mcg_hal.o(.data) for g_slowInternalRefClkFreq
    fsl_mcg_hal_modes.o(i.CLOCK_HAL_SetFeeMode) refers to fsl_mcg_hal_modes.o(i.CLOCK_HAL_GetMcgMode) for CLOCK_HAL_GetMcgMode
    fsl_mcg_hal_modes.o(i.CLOCK_HAL_SetFeeMode) refers to fsl_mcg_hal.o(i.CLOCK_HAL_TestOscFreq) for CLOCK_HAL_TestOscFreq
    fsl_mcg_hal_modes.o(i.CLOCK_HAL_SetFeeMode) refers to fsl_mcg_hal.o(i.CLOCK_HAL_TestFllExternalRefFreq) for CLOCK_HAL_TestFllExternalRefFreq
    fsl_mcg_hal_modes.o(i.CLOCK_HAL_SetFeeMode) refers to fsl_mcg_hal.o(i.CLOCK_HAL_TestFllFreq) for CLOCK_HAL_TestFllFreq
    fsl_mcg_hal_modes.o(i.CLOCK_HAL_SetFeeMode) refers to fsl_mcg_hal_modes.o(i.CLOCK_HAL_IsOsc0Stable) for CLOCK_HAL_IsOsc0Stable
    fsl_mcg_hal_modes.o(i.CLOCK_HAL_SetFeeMode) refers to fsl_mcg_hal_modes.o(i.CLOCK_HAL_GetFllSrc) for CLOCK_HAL_GetFllSrc
    fsl_mcg_hal_modes.o(i.CLOCK_HAL_SetFeeMode) refers to fsl_mcg_hal_modes.o(i.CLOCK_HAL_GetClkOutStat) for CLOCK_HAL_GetClkOutStat
    fsl_mcg_hal_modes.o(i.CLOCK_HAL_SetFeiMode) refers to fsl_mcg_hal_modes.o(i.CLOCK_HAL_GetMcgMode) for CLOCK_HAL_GetMcgMode
    fsl_mcg_hal_modes.o(i.CLOCK_HAL_SetFeiMode) refers to fsl_mcg_hal.o(i.CLOCK_HAL_TestFllFreq) for CLOCK_HAL_TestFllFreq
    fsl_mcg_hal_modes.o(i.CLOCK_HAL_SetFeiMode) refers to fsl_mcg_hal_modes.o(i.CLOCK_HAL_GetFllSrc) for CLOCK_HAL_GetFllSrc
    fsl_mcg_hal_modes.o(i.CLOCK_HAL_SetFeiMode) refers to fsl_mcg_hal_modes.o(i.CLOCK_HAL_GetClkOutStat) for CLOCK_HAL_GetClkOutStat
    fsl_mcg_hal_modes.o(i.CLOCK_HAL_SetFeiMode) refers to fsl_mcg_hal.o(.data) for g_slowInternalRefClkFreq
    fsl_mcg_hal_modes.o(i.CLOCK_HAL_SetPbeMode) refers to fsl_mcg_hal_modes.o(i.CLOCK_HAL_GetMcgMode) for CLOCK_HAL_GetMcgMode
    fsl_mcg_hal_modes.o(i.CLOCK_HAL_SetPbeMode) refers to fsl_mcg_hal.o(i.CLOCK_HAL_TestOscFreq) for CLOCK_HAL_TestOscFreq
    fsl_mcg_hal_modes.o(i.CLOCK_HAL_SetPbeMode) refers to fsl_mcg_hal_modes.o(i.CLOCK_HAL_GetClkOutStat) for CLOCK_HAL_GetClkOutStat
    fsl_mcg_hal_modes.o(i.CLOCK_HAL_SetPbeMode) refers to fsl_mcg_hal_modes.o(i.CLOCK_HAL_PrepareOsc) for CLOCK_HAL_PrepareOsc
    fsl_mcg_hal_modes.o(i.CLOCK_HAL_SetPbeMode) refers to fsl_mcg_hal_modes.o(i.CLOCK_HAL_IsPllSelected) for CLOCK_HAL_IsPllSelected
    fsl_mcg_hal_modes.o(i.CLOCK_HAL_SetPeeMode) refers to fsl_mcg_hal_modes.o(i.CLOCK_HAL_GetMcgMode) for CLOCK_HAL_GetMcgMode
    fsl_mcg_hal_modes.o(i.CLOCK_HAL_SetPeeMode) refers to fsl_mcg_hal_modes.o(i.CLOCK_HAL_GetClkOutStat) for CLOCK_HAL_GetClkOutStat
    fsl_mcg_hal_modes.o(i.CLOCK_HAL_SetPeeMode) refers to fsl_mcg_hal.o(i.CLOCK_HAL_GetOutClk) for CLOCK_HAL_GetOutClk
    fsl_rtc_hal.o(i.RTC_HAL_ConvertDatetimeToSecs) refers to fsl_rtc_hal.o(.constdata) for MONTH_DAYS
    fsl_rtc_hal.o(i.RTC_HAL_ConvertSecsToDatetime) refers to fsl_rtc_hal.o(.constdata) for ULY
    fsl_rtc_hal.o(i.RTC_HAL_Disable) refers to fsl_rtc_hal.o(i.RTC_HAL_EnableCounter) for RTC_HAL_EnableCounter
    fsl_rtc_hal.o(i.RTC_HAL_Disable) refers to fsl_rtc_hal.o(i.RTC_HAL_IsOscillatorEnabled) for RTC_HAL_IsOscillatorEnabled
    fsl_rtc_hal.o(i.RTC_HAL_Disable) refers to fsl_rtc_hal.o(i.RTC_HAL_SetOscillatorCmd) for RTC_HAL_SetOscillatorCmd
    fsl_rtc_hal.o(i.RTC_HAL_Enable) refers to fsl_rtc_hal.o(i.RTC_HAL_SetOscillatorCmd) for RTC_HAL_SetOscillatorCmd
    fsl_rtc_hal.o(i.RTC_HAL_Enable) refers to fsl_rtc_hal.o(i.RTC_HAL_IsOscillatorEnabled) for RTC_HAL_IsOscillatorEnabled
    fsl_rtc_hal.o(i.RTC_HAL_Enable) refers to fsl_mcg_hal.o(.data) for g_xtal0ClkFreq
    fsl_rtc_hal.o(i.RTC_HAL_GetAlarm) refers to assert.o(.text) for __aeabi_assert
    fsl_rtc_hal.o(i.RTC_HAL_GetAlarm) refers to fsl_rtc_hal.o(i.RTC_HAL_ConvertSecsToDatetime) for RTC_HAL_ConvertSecsToDatetime
    fsl_rtc_hal.o(i.RTC_HAL_GetAlarm) refers to fsl_rtc_hal.o(.conststring) for .conststring
    fsl_rtc_hal.o(i.RTC_HAL_GetDatetime) refers to assert.o(.text) for __aeabi_assert
    fsl_rtc_hal.o(i.RTC_HAL_GetDatetime) refers to fsl_rtc_hal.o(i.RTC_HAL_GetDatetimeInSecs) for RTC_HAL_GetDatetimeInSecs
    fsl_rtc_hal.o(i.RTC_HAL_GetDatetime) refers to fsl_rtc_hal.o(i.RTC_HAL_ConvertSecsToDatetime) for RTC_HAL_ConvertSecsToDatetime
    fsl_rtc_hal.o(i.RTC_HAL_GetDatetime) refers to fsl_rtc_hal.o(.conststring) for .conststring
    fsl_rtc_hal.o(i.RTC_HAL_GetDatetimeInSecs) refers to assert.o(.text) for __aeabi_assert
    fsl_rtc_hal.o(i.RTC_HAL_GetDatetimeInSecs) refers to fsl_rtc_hal.o(.conststring) for .conststring
    fsl_rtc_hal.o(i.RTC_HAL_Init) refers to fsl_rtc_hal.o(i.RTC_HAL_SetSecsReg) for RTC_HAL_SetSecsReg
    fsl_rtc_hal.o(i.RTC_HAL_IsDatetimeCorrectFormat) refers to fsl_rtc_hal.o(.constdata) for ULY
    fsl_rtc_hal.o(i.RTC_HAL_SetAlarm) refers to assert.o(.text) for __aeabi_assert
    fsl_rtc_hal.o(i.RTC_HAL_SetAlarm) refers to fsl_rtc_hal.o(i.RTC_HAL_ConvertDatetimeToSecs) for RTC_HAL_ConvertDatetimeToSecs
    fsl_rtc_hal.o(i.RTC_HAL_SetAlarm) refers to fsl_rtc_hal.o(.conststring) for .conststring
    fsl_rtc_hal.o(i.RTC_HAL_SetDatetime) refers to assert.o(.text) for __aeabi_assert
    fsl_rtc_hal.o(i.RTC_HAL_SetDatetime) refers to fsl_rtc_hal.o(i.RTC_HAL_ConvertDatetimeToSecs) for RTC_HAL_ConvertDatetimeToSecs
    fsl_rtc_hal.o(i.RTC_HAL_SetDatetime) refers to fsl_rtc_hal.o(i.RTC_HAL_SetDatetimeInsecs) for RTC_HAL_SetDatetimeInsecs
    fsl_rtc_hal.o(i.RTC_HAL_SetDatetime) refers to fsl_rtc_hal.o(.conststring) for .conststring
    fsl_rtc_hal.o(i.RTC_HAL_SetDatetimeInsecs) refers to fsl_rtc_hal.o(i.RTC_HAL_EnableCounter) for RTC_HAL_EnableCounter
    fsl_rtc_hal.o(i.RTC_HAL_SetDatetimeInsecs) refers to fsl_rtc_hal.o(i.RTC_HAL_SetSecsReg) for RTC_HAL_SetSecsReg
    fsl_sim_hal_mk64f12.o(i.SIM_HAL_GetAdcAlternativeTriggerCmd) refers to assert.o(.text) for __aeabi_assert
    fsl_sim_hal_mk64f12.o(i.SIM_HAL_GetAdcAlternativeTriggerCmd) refers to fsl_sim_hal_mk64f12.o(.conststring) for .conststring
    fsl_sim_hal_mk64f12.o(i.SIM_HAL_GetAdcPreTriggerMode) refers to assert.o(.text) for __aeabi_assert
    fsl_sim_hal_mk64f12.o(i.SIM_HAL_GetAdcPreTriggerMode) refers to fsl_sim_hal_mk64f12.o(.conststring) for .conststring
    fsl_sim_hal_mk64f12.o(i.SIM_HAL_GetAdcTriggerMode) refers to assert.o(.text) for __aeabi_assert
    fsl_sim_hal_mk64f12.o(i.SIM_HAL_GetAdcTriggerMode) refers to fsl_sim_hal_mk64f12.o(.conststring) for .conststring
    fsl_sim_hal_mk64f12.o(i.SIM_HAL_GetFtmChSrcMode) refers to assert.o(.text) for __aeabi_assert
    fsl_sim_hal_mk64f12.o(i.SIM_HAL_GetFtmChSrcMode) refers to fsl_sim_hal_mk64f12.o(.conststring) for .conststring
    fsl_sim_hal_mk64f12.o(i.SIM_HAL_GetFtmExternalClkPinMode) refers to assert.o(.text) for __aeabi_assert
    fsl_sim_hal_mk64f12.o(i.SIM_HAL_GetFtmExternalClkPinMode) refers to fsl_sim_hal_mk64f12.o(.conststring) for .conststring
    fsl_sim_hal_mk64f12.o(i.SIM_HAL_GetFtmFaultSelMode) refers to assert.o(.text) for __aeabi_assert
    fsl_sim_hal_mk64f12.o(i.SIM_HAL_GetFtmFaultSelMode) refers to fsl_sim_hal_mk64f12.o(.conststring) for .conststring
    fsl_sim_hal_mk64f12.o(i.SIM_HAL_GetFtmTriggerSrcMode) refers to assert.o(.text) for __aeabi_assert
    fsl_sim_hal_mk64f12.o(i.SIM_HAL_GetFtmTriggerSrcMode) refers to fsl_sim_hal_mk64f12.o(.conststring) for .conststring
    fsl_sim_hal_mk64f12.o(i.SIM_HAL_GetUartRxSrcMode) refers to assert.o(.text) for __aeabi_assert
    fsl_sim_hal_mk64f12.o(i.SIM_HAL_GetUartRxSrcMode) refers to fsl_sim_hal_mk64f12.o(.conststring) for .conststring
    fsl_sim_hal_mk64f12.o(i.SIM_HAL_GetUartTxSrcMode) refers to assert.o(.text) for __aeabi_assert
    fsl_sim_hal_mk64f12.o(i.SIM_HAL_GetUartTxSrcMode) refers to fsl_sim_hal_mk64f12.o(.conststring) for .conststring
    fsl_sim_hal_mk64f12.o(i.SIM_HAL_SetAdcAlternativeTriggerCmd) refers to assert.o(.text) for __aeabi_assert
    fsl_sim_hal_mk64f12.o(i.SIM_HAL_SetAdcAlternativeTriggerCmd) refers to fsl_sim_hal_mk64f12.o(.conststring) for .conststring
    fsl_sim_hal_mk64f12.o(i.SIM_HAL_SetAdcPreTriggerMode) refers to assert.o(.text) for __aeabi_assert
    fsl_sim_hal_mk64f12.o(i.SIM_HAL_SetAdcPreTriggerMode) refers to fsl_sim_hal_mk64f12.o(.conststring) for .conststring
    fsl_sim_hal_mk64f12.o(i.SIM_HAL_SetAdcTriggerMode) refers to assert.o(.text) for __aeabi_assert
    fsl_sim_hal_mk64f12.o(i.SIM_HAL_SetAdcTriggerMode) refers to fsl_sim_hal_mk64f12.o(.conststring) for .conststring
    fsl_sim_hal_mk64f12.o(i.SIM_HAL_SetAdcTriggerModeOneStep) refers to assert.o(.text) for __aeabi_assert
    fsl_sim_hal_mk64f12.o(i.SIM_HAL_SetAdcTriggerModeOneStep) refers to fsl_sim_hal_mk64f12.o(.conststring) for .conststring
    fsl_sim_hal_mk64f12.o(i.SIM_HAL_SetFtmChSrcMode) refers to assert.o(.text) for __aeabi_assert
    fsl_sim_hal_mk64f12.o(i.SIM_HAL_SetFtmChSrcMode) refers to fsl_sim_hal_mk64f12.o(.conststring) for .conststring
    fsl_sim_hal_mk64f12.o(i.SIM_HAL_SetFtmExternalClkPinMode) refers to assert.o(.text) for __aeabi_assert
    fsl_sim_hal_mk64f12.o(i.SIM_HAL_SetFtmExternalClkPinMode) refers to fsl_sim_hal_mk64f12.o(.conststring) for .conststring
    fsl_sim_hal_mk64f12.o(i.SIM_HAL_SetFtmFaultSelMode) refers to assert.o(.text) for __aeabi_assert
    fsl_sim_hal_mk64f12.o(i.SIM_HAL_SetFtmFaultSelMode) refers to fsl_sim_hal_mk64f12.o(.conststring) for .conststring
    fsl_sim_hal_mk64f12.o(i.SIM_HAL_SetFtmTriggerSrcMode) refers to assert.o(.text) for __aeabi_assert
    fsl_sim_hal_mk64f12.o(i.SIM_HAL_SetFtmTriggerSrcMode) refers to fsl_sim_hal_mk64f12.o(.conststring) for .conststring
    fsl_sim_hal_mk64f12.o(i.SIM_HAL_SetUartRxSrcMode) refers to assert.o(.text) for __aeabi_assert
    fsl_sim_hal_mk64f12.o(i.SIM_HAL_SetUartRxSrcMode) refers to fsl_sim_hal_mk64f12.o(.conststring) for .conststring
    fsl_sim_hal_mk64f12.o(i.SIM_HAL_SetUartTxSrcMode) refers to assert.o(.text) for __aeabi_assert
    fsl_sim_hal_mk64f12.o(i.SIM_HAL_SetUartTxSrcMode) refers to fsl_sim_hal_mk64f12.o(.conststring) for .conststring
    fsl_uart_hal.o(i.UART_HAL_PutReceiverInStandbyMode) refers to fsl_uart_hal.o(i.UART_HAL_GetStatusFlag) for UART_HAL_GetStatusFlag
    fsl_uart_hal.o(i.UART_HAL_ReceiveDataPolling) refers to fsl_uart_hal.o(i.UART_HAL_Getchar) for UART_HAL_Getchar
    fsl_uart_hal.o(i.UART_HAL_SendDataPolling) refers to fsl_uart_hal.o(i.UART_HAL_Putchar) for UART_HAL_Putchar
    fsl_uart_hal.o(i.UART_HAL_SetBaudRateDivisor) refers to assert.o(.text) for __aeabi_assert
    fsl_uart_hal.o(i.UART_HAL_SetBaudRateDivisor) refers to fsl_uart_hal.o(.conststring) for .conststring
    fsl_os_abstraction_bm.o(i.OSA_EnterCritical) refers to fsl_interrupt_manager.o(i.INT_SYS_DisableIRQGlobal) for INT_SYS_DisableIRQGlobal
    fsl_os_abstraction_bm.o(i.OSA_EventClear) refers to assert.o(.text) for __aeabi_assert
    fsl_os_abstraction_bm.o(i.OSA_EventClear) refers to fsl_interrupt_manager.o(i.INT_SYS_DisableIRQGlobal) for INT_SYS_DisableIRQGlobal
    fsl_os_abstraction_bm.o(i.OSA_EventClear) refers to fsl_interrupt_manager.o(i.INT_SYS_EnableIRQGlobal) for INT_SYS_EnableIRQGlobal
    fsl_os_abstraction_bm.o(i.OSA_EventClear) refers to fsl_os_abstraction_bm.o(.conststring) for .conststring
    fsl_os_abstraction_bm.o(i.OSA_EventCreate) refers to assert.o(.text) for __aeabi_assert
    fsl_os_abstraction_bm.o(i.OSA_EventCreate) refers to fsl_os_abstraction_bm.o(.conststring) for .conststring
    fsl_os_abstraction_bm.o(i.OSA_EventDestroy) refers to assert.o(.text) for __aeabi_assert
    fsl_os_abstraction_bm.o(i.OSA_EventDestroy) refers to fsl_os_abstraction_bm.o(.conststring) for .conststring
    fsl_os_abstraction_bm.o(i.OSA_EventGetFlags) refers to assert.o(.text) for __aeabi_assert
    fsl_os_abstraction_bm.o(i.OSA_EventGetFlags) refers to fsl_os_abstraction_bm.o(.conststring) for .conststring
    fsl_os_abstraction_bm.o(i.OSA_EventSet) refers to assert.o(.text) for __aeabi_assert
    fsl_os_abstraction_bm.o(i.OSA_EventSet) refers to fsl_interrupt_manager.o(i.INT_SYS_DisableIRQGlobal) for INT_SYS_DisableIRQGlobal
    fsl_os_abstraction_bm.o(i.OSA_EventSet) refers to fsl_interrupt_manager.o(i.INT_SYS_EnableIRQGlobal) for INT_SYS_EnableIRQGlobal
    fsl_os_abstraction_bm.o(i.OSA_EventSet) refers to fsl_os_abstraction_bm.o(.conststring) for .conststring
    fsl_os_abstraction_bm.o(i.OSA_EventWait) refers to assert.o(.text) for __aeabi_assert
    fsl_os_abstraction_bm.o(i.OSA_EventWait) refers to fsl_interrupt_manager.o(i.INT_SYS_DisableIRQGlobal) for INT_SYS_DisableIRQGlobal
    fsl_os_abstraction_bm.o(i.OSA_EventWait) refers to fsl_interrupt_manager.o(i.INT_SYS_EnableIRQGlobal) for INT_SYS_EnableIRQGlobal
    fsl_os_abstraction_bm.o(i.OSA_EventWait) refers to fsl_os_abstraction_bm.o(i.OSA_TimeGetMsec) for OSA_TimeGetMsec
    fsl_os_abstraction_bm.o(i.OSA_EventWait) refers to fsl_os_abstraction_bm.o(i.OSA_TimeDiff) for OSA_TimeDiff
    fsl_os_abstraction_bm.o(i.OSA_EventWait) refers to fsl_os_abstraction_bm.o(.conststring) for .conststring
    fsl_os_abstraction_bm.o(i.OSA_ExitCritical) refers to fsl_interrupt_manager.o(i.INT_SYS_EnableIRQGlobal) for INT_SYS_EnableIRQGlobal
    fsl_os_abstraction_bm.o(i.OSA_Init) refers to fsl_os_abstraction_bm.o(i.task_init) for task_init
    fsl_os_abstraction_bm.o(i.OSA_Init) refers to fsl_os_abstraction_bm.o(i.OSA_TimeInit) for OSA_TimeInit
    fsl_os_abstraction_bm.o(i.OSA_InstallIntHandler) refers to fsl_interrupt_manager.o(i.INT_SYS_InstallHandler) for INT_SYS_InstallHandler
    fsl_os_abstraction_bm.o(i.OSA_MemAlloc) refers to h1_alloc.o(.text) for malloc
    fsl_os_abstraction_bm.o(i.OSA_MemAllocZero) refers to calloc.o(.text) for calloc
    fsl_os_abstraction_bm.o(i.OSA_MemFree) refers to h1_free.o(.text) for free
    fsl_os_abstraction_bm.o(i.OSA_MsgQCreate) refers to assert.o(.text) for __aeabi_assert
    fsl_os_abstraction_bm.o(i.OSA_MsgQCreate) refers to fsl_os_abstraction_bm.o(i.OSA_SemaCreate) for OSA_SemaCreate
    fsl_os_abstraction_bm.o(i.OSA_MsgQCreate) refers to fsl_os_abstraction_bm.o(.conststring) for .conststring
    fsl_os_abstraction_bm.o(i.OSA_MsgQDestroy) refers to assert.o(.text) for __aeabi_assert
    fsl_os_abstraction_bm.o(i.OSA_MsgQDestroy) refers to fsl_os_abstraction_bm.o(i.OSA_SemaDestroy) for OSA_SemaDestroy
    fsl_os_abstraction_bm.o(i.OSA_MsgQDestroy) refers to fsl_os_abstraction_bm.o(.conststring) for .conststring
    fsl_os_abstraction_bm.o(i.OSA_MsgQGet) refers to assert.o(.text) for __aeabi_assert
    fsl_os_abstraction_bm.o(i.OSA_MsgQGet) refers to fsl_interrupt_manager.o(i.INT_SYS_DisableIRQGlobal) for INT_SYS_DisableIRQGlobal
    fsl_os_abstraction_bm.o(i.OSA_MsgQGet) refers to fsl_os_abstraction_bm.o(i.OSA_SemaWait) for OSA_SemaWait
    fsl_os_abstraction_bm.o(i.OSA_MsgQGet) refers to fsl_interrupt_manager.o(i.INT_SYS_EnableIRQGlobal) for INT_SYS_EnableIRQGlobal
    fsl_os_abstraction_bm.o(i.OSA_MsgQGet) refers to fsl_os_abstraction_bm.o(.conststring) for .conststring
    fsl_os_abstraction_bm.o(i.OSA_MsgQPut) refers to assert.o(.text) for __aeabi_assert
    fsl_os_abstraction_bm.o(i.OSA_MsgQPut) refers to fsl_interrupt_manager.o(i.INT_SYS_DisableIRQGlobal) for INT_SYS_DisableIRQGlobal
    fsl_os_abstraction_bm.o(i.OSA_MsgQPut) refers to fsl_os_abstraction_bm.o(i.OSA_SemaPost) for OSA_SemaPost
    fsl_os_abstraction_bm.o(i.OSA_MsgQPut) refers to fsl_interrupt_manager.o(i.INT_SYS_EnableIRQGlobal) for INT_SYS_EnableIRQGlobal
    fsl_os_abstraction_bm.o(i.OSA_MsgQPut) refers to fsl_os_abstraction_bm.o(.conststring) for .conststring
    fsl_os_abstraction_bm.o(i.OSA_MutexCreate) refers to assert.o(.text) for __aeabi_assert
    fsl_os_abstraction_bm.o(i.OSA_MutexCreate) refers to fsl_os_abstraction_bm.o(.conststring) for .conststring
    fsl_os_abstraction_bm.o(i.OSA_MutexDestroy) refers to assert.o(.text) for __aeabi_assert
    fsl_os_abstraction_bm.o(i.OSA_MutexDestroy) refers to fsl_os_abstraction_bm.o(.conststring) for .conststring
    fsl_os_abstraction_bm.o(i.OSA_MutexLock) refers to assert.o(.text) for __aeabi_assert
    fsl_os_abstraction_bm.o(i.OSA_MutexLock) refers to fsl_interrupt_manager.o(i.INT_SYS_DisableIRQGlobal) for INT_SYS_DisableIRQGlobal
    fsl_os_abstraction_bm.o(i.OSA_MutexLock) refers to fsl_interrupt_manager.o(i.INT_SYS_EnableIRQGlobal) for INT_SYS_EnableIRQGlobal
    fsl_os_abstraction_bm.o(i.OSA_MutexLock) refers to fsl_os_abstraction_bm.o(i.OSA_TimeGetMsec) for OSA_TimeGetMsec
    fsl_os_abstraction_bm.o(i.OSA_MutexLock) refers to fsl_os_abstraction_bm.o(i.OSA_TimeDiff) for OSA_TimeDiff
    fsl_os_abstraction_bm.o(i.OSA_MutexLock) refers to fsl_os_abstraction_bm.o(.conststring) for .conststring
    fsl_os_abstraction_bm.o(i.OSA_MutexUnlock) refers to assert.o(.text) for __aeabi_assert
    fsl_os_abstraction_bm.o(i.OSA_MutexUnlock) refers to fsl_interrupt_manager.o(i.INT_SYS_DisableIRQGlobal) for INT_SYS_DisableIRQGlobal
    fsl_os_abstraction_bm.o(i.OSA_MutexUnlock) refers to fsl_interrupt_manager.o(i.INT_SYS_EnableIRQGlobal) for INT_SYS_EnableIRQGlobal
    fsl_os_abstraction_bm.o(i.OSA_MutexUnlock) refers to fsl_os_abstraction_bm.o(.conststring) for .conststring
    fsl_os_abstraction_bm.o(i.OSA_PollAllOtherTasks) refers to fsl_os_abstraction_bm.o(.data) for g_curTask
    fsl_os_abstraction_bm.o(i.OSA_PollAllOtherTasks) refers to fsl_os_abstraction_bm.o(.bss) for g_taskListHead
    fsl_os_abstraction_bm.o(i.OSA_SemaCreate) refers to assert.o(.text) for __aeabi_assert
    fsl_os_abstraction_bm.o(i.OSA_SemaCreate) refers to fsl_os_abstraction_bm.o(.conststring) for .conststring
    fsl_os_abstraction_bm.o(i.OSA_SemaDestroy) refers to assert.o(.text) for __aeabi_assert
    fsl_os_abstraction_bm.o(i.OSA_SemaDestroy) refers to fsl_os_abstraction_bm.o(.conststring) for .conststring
    fsl_os_abstraction_bm.o(i.OSA_SemaPost) refers to assert.o(.text) for __aeabi_assert
    fsl_os_abstraction_bm.o(i.OSA_SemaPost) refers to fsl_interrupt_manager.o(i.INT_SYS_DisableIRQGlobal) for INT_SYS_DisableIRQGlobal
    fsl_os_abstraction_bm.o(i.OSA_SemaPost) refers to fsl_interrupt_manager.o(i.INT_SYS_EnableIRQGlobal) for INT_SYS_EnableIRQGlobal
    fsl_os_abstraction_bm.o(i.OSA_SemaPost) refers to fsl_os_abstraction_bm.o(.conststring) for .conststring
    fsl_os_abstraction_bm.o(i.OSA_SemaWait) refers to assert.o(.text) for __aeabi_assert
    fsl_os_abstraction_bm.o(i.OSA_SemaWait) refers to fsl_interrupt_manager.o(i.INT_SYS_DisableIRQGlobal) for INT_SYS_DisableIRQGlobal
    fsl_os_abstraction_bm.o(i.OSA_SemaWait) refers to fsl_interrupt_manager.o(i.INT_SYS_EnableIRQGlobal) for INT_SYS_EnableIRQGlobal
    fsl_os_abstraction_bm.o(i.OSA_SemaWait) refers to fsl_os_abstraction_bm.o(i.OSA_TimeGetMsec) for OSA_TimeGetMsec
    fsl_os_abstraction_bm.o(i.OSA_SemaWait) refers to fsl_os_abstraction_bm.o(i.OSA_TimeDiff) for OSA_TimeDiff
    fsl_os_abstraction_bm.o(i.OSA_SemaWait) refers to fsl_os_abstraction_bm.o(.conststring) for .conststring
    fsl_os_abstraction_bm.o(i.OSA_Start) refers to fsl_os_abstraction_bm.o(.bss) for g_taskListHead
    fsl_os_abstraction_bm.o(i.OSA_Start) refers to fsl_os_abstraction_bm.o(.data) for g_curTask
    fsl_os_abstraction_bm.o(i.OSA_TaskCreate) refers to fsl_os_abstraction_bm.o(.data) for g_freeTaskControlBlock
    fsl_os_abstraction_bm.o(i.OSA_TaskCreate) refers to fsl_os_abstraction_bm.o(.bss) for g_taskListHead
    fsl_os_abstraction_bm.o(i.OSA_TaskDestroy) refers to assert.o(.text) for __aeabi_assert
    fsl_os_abstraction_bm.o(i.OSA_TaskDestroy) refers to fsl_os_abstraction_bm.o(.conststring) for .conststring
    fsl_os_abstraction_bm.o(i.OSA_TaskDestroy) refers to fsl_os_abstraction_bm.o(.data) for g_curTask
    fsl_os_abstraction_bm.o(i.OSA_TaskGetHandler) refers to fsl_os_abstraction_bm.o(.data) for g_curTask
    fsl_os_abstraction_bm.o(i.OSA_TimeDelay) refers to fsl_os_abstraction_bm.o(i.OSA_TimeGetMsec) for OSA_TimeGetMsec
    fsl_os_abstraction_bm.o(i.OSA_TimeDelay) refers to fsl_os_abstraction_bm.o(i.OSA_TimeDiff) for OSA_TimeDiff
    fsl_os_abstraction_bm.o(i.OSA_TimeGetMsec) refers to fsl_lptmr_hal.o(i.LPTMR_HAL_GetCounterValue) for LPTMR_HAL_GetCounterValue
    fsl_os_abstraction_bm.o(i.OSA_TimeInit) refers to fsl_lptmr_hal.o(i.LPTMR_HAL_SetPrescalerMode) for LPTMR_HAL_SetPrescalerMode
    fsl_os_abstraction_bm.o(i.OSA_TimeInit) refers to fsl_lptmr_hal.o(i.LPTMR_HAL_SetTimerWorkingMode) for LPTMR_HAL_SetTimerWorkingMode
    fsl_os_abstraction_bm.o(i.task_init) refers to fsl_os_abstraction_bm.o(.bss) for g_taskControlBlockPool
    fsl_os_abstraction_bm.o(i.task_init) refers to fsl_os_abstraction_bm.o(.data) for g_freeTaskControlBlock
    fsl_clock_mk64f12.o(i.CLOCK_SYS_DisableAdcClock) refers to assert.o(.text) for __aeabi_assert
    fsl_clock_mk64f12.o(i.CLOCK_SYS_DisableAdcClock) refers to fsl_clock_mk64f12.o(i.SIM_HAL_DisableClock) for SIM_HAL_DisableClock
    fsl_clock_mk64f12.o(i.CLOCK_SYS_DisableAdcClock) refers to fsl_clock_mk64f12.o(.conststring) for .conststring
    fsl_clock_mk64f12.o(i.CLOCK_SYS_DisableAdcClock) refers to fsl_clock_mk64f12.o(.constdata) for adcGateTable
    fsl_clock_mk64f12.o(i.CLOCK_SYS_DisableDacClock) refers to assert.o(.text) for __aeabi_assert
    fsl_clock_mk64f12.o(i.CLOCK_SYS_DisableDacClock) refers to fsl_clock_mk64f12.o(i.SIM_HAL_DisableClock) for SIM_HAL_DisableClock
    fsl_clock_mk64f12.o(i.CLOCK_SYS_DisableDacClock) refers to fsl_clock_mk64f12.o(.conststring) for .conststring
    fsl_clock_mk64f12.o(i.CLOCK_SYS_DisableDacClock) refers to fsl_clock_mk64f12.o(.constdata) for dacGateTable
    fsl_clock_mk64f12.o(i.CLOCK_SYS_DisableFtmClock) refers to assert.o(.text) for __aeabi_assert
    fsl_clock_mk64f12.o(i.CLOCK_SYS_DisableFtmClock) refers to fsl_clock_mk64f12.o(i.SIM_HAL_DisableClock) for SIM_HAL_DisableClock
    fsl_clock_mk64f12.o(i.CLOCK_SYS_DisableFtmClock) refers to fsl_clock_mk64f12.o(.conststring) for .conststring
    fsl_clock_mk64f12.o(i.CLOCK_SYS_DisableFtmClock) refers to fsl_clock_mk64f12.o(.constdata) for ftmGateTable
    fsl_clock_mk64f12.o(i.CLOCK_SYS_DisableI2cClock) refers to assert.o(.text) for __aeabi_assert
    fsl_clock_mk64f12.o(i.CLOCK_SYS_DisableI2cClock) refers to fsl_clock_mk64f12.o(i.SIM_HAL_DisableClock) for SIM_HAL_DisableClock
    fsl_clock_mk64f12.o(i.CLOCK_SYS_DisableI2cClock) refers to fsl_clock_mk64f12.o(.conststring) for .conststring
    fsl_clock_mk64f12.o(i.CLOCK_SYS_DisableI2cClock) refers to fsl_clock_mk64f12.o(.constdata) for i2cGateTable
    fsl_clock_mk64f12.o(i.CLOCK_SYS_DisablePortClock) refers to assert.o(.text) for __aeabi_assert
    fsl_clock_mk64f12.o(i.CLOCK_SYS_DisablePortClock) refers to fsl_clock_mk64f12.o(i.SIM_HAL_DisableClock) for SIM_HAL_DisableClock
    fsl_clock_mk64f12.o(i.CLOCK_SYS_DisablePortClock) refers to fsl_clock_mk64f12.o(.conststring) for .conststring
    fsl_clock_mk64f12.o(i.CLOCK_SYS_DisablePortClock) refers to fsl_clock_mk64f12.o(.constdata) for portGateTable
    fsl_clock_mk64f12.o(i.CLOCK_SYS_DisableSpiClock) refers to assert.o(.text) for __aeabi_assert
    fsl_clock_mk64f12.o(i.CLOCK_SYS_DisableSpiClock) refers to fsl_clock_mk64f12.o(i.SIM_HAL_DisableClock) for SIM_HAL_DisableClock
    fsl_clock_mk64f12.o(i.CLOCK_SYS_DisableSpiClock) refers to fsl_clock_mk64f12.o(.conststring) for .conststring
    fsl_clock_mk64f12.o(i.CLOCK_SYS_DisableSpiClock) refers to fsl_clock_mk64f12.o(.constdata) for spiGateTable
    fsl_clock_mk64f12.o(i.CLOCK_SYS_DisableUartClock) refers to assert.o(.text) for __aeabi_assert
    fsl_clock_mk64f12.o(i.CLOCK_SYS_DisableUartClock) refers to fsl_clock_mk64f12.o(i.SIM_HAL_DisableClock) for SIM_HAL_DisableClock
    fsl_clock_mk64f12.o(i.CLOCK_SYS_DisableUartClock) refers to fsl_clock_mk64f12.o(.conststring) for .conststring
    fsl_clock_mk64f12.o(i.CLOCK_SYS_DisableUartClock) refers to fsl_clock_mk64f12.o(.constdata) for uartGateTable
    fsl_clock_mk64f12.o(i.CLOCK_SYS_EnableAdcClock) refers to assert.o(.text) for __aeabi_assert
    fsl_clock_mk64f12.o(i.CLOCK_SYS_EnableAdcClock) refers to fsl_clock_mk64f12.o(i.SIM_HAL_EnableClock) for SIM_HAL_EnableClock
    fsl_clock_mk64f12.o(i.CLOCK_SYS_EnableAdcClock) refers to fsl_clock_mk64f12.o(.conststring) for .conststring
    fsl_clock_mk64f12.o(i.CLOCK_SYS_EnableAdcClock) refers to fsl_clock_mk64f12.o(.constdata) for adcGateTable
    fsl_clock_mk64f12.o(i.CLOCK_SYS_EnableDacClock) refers to assert.o(.text) for __aeabi_assert
    fsl_clock_mk64f12.o(i.CLOCK_SYS_EnableDacClock) refers to fsl_clock_mk64f12.o(i.SIM_HAL_EnableClock) for SIM_HAL_EnableClock
    fsl_clock_mk64f12.o(i.CLOCK_SYS_EnableDacClock) refers to fsl_clock_mk64f12.o(.conststring) for .conststring
    fsl_clock_mk64f12.o(i.CLOCK_SYS_EnableDacClock) refers to fsl_clock_mk64f12.o(.constdata) for dacGateTable
    fsl_clock_mk64f12.o(i.CLOCK_SYS_EnableFtmClock) refers to assert.o(.text) for __aeabi_assert
    fsl_clock_mk64f12.o(i.CLOCK_SYS_EnableFtmClock) refers to fsl_clock_mk64f12.o(i.SIM_HAL_EnableClock) for SIM_HAL_EnableClock
    fsl_clock_mk64f12.o(i.CLOCK_SYS_EnableFtmClock) refers to fsl_clock_mk64f12.o(.conststring) for .conststring
    fsl_clock_mk64f12.o(i.CLOCK_SYS_EnableFtmClock) refers to fsl_clock_mk64f12.o(.constdata) for ftmGateTable
    fsl_clock_mk64f12.o(i.CLOCK_SYS_EnableI2cClock) refers to assert.o(.text) for __aeabi_assert
    fsl_clock_mk64f12.o(i.CLOCK_SYS_EnableI2cClock) refers to fsl_clock_mk64f12.o(i.SIM_HAL_EnableClock) for SIM_HAL_EnableClock
    fsl_clock_mk64f12.o(i.CLOCK_SYS_EnableI2cClock) refers to fsl_clock_mk64f12.o(.conststring) for .conststring
    fsl_clock_mk64f12.o(i.CLOCK_SYS_EnableI2cClock) refers to fsl_clock_mk64f12.o(.constdata) for i2cGateTable
    fsl_clock_mk64f12.o(i.CLOCK_SYS_EnablePortClock) refers to assert.o(.text) for __aeabi_assert
    fsl_clock_mk64f12.o(i.CLOCK_SYS_EnablePortClock) refers to fsl_clock_mk64f12.o(i.SIM_HAL_EnableClock) for SIM_HAL_EnableClock
    fsl_clock_mk64f12.o(i.CLOCK_SYS_EnablePortClock) refers to fsl_clock_mk64f12.o(.conststring) for .conststring
    fsl_clock_mk64f12.o(i.CLOCK_SYS_EnablePortClock) refers to fsl_clock_mk64f12.o(.constdata) for portGateTable
    fsl_clock_mk64f12.o(i.CLOCK_SYS_EnableSpiClock) refers to assert.o(.text) for __aeabi_assert
    fsl_clock_mk64f12.o(i.CLOCK_SYS_EnableSpiClock) refers to fsl_clock_mk64f12.o(i.SIM_HAL_EnableClock) for SIM_HAL_EnableClock
    fsl_clock_mk64f12.o(i.CLOCK_SYS_EnableSpiClock) refers to fsl_clock_mk64f12.o(.conststring) for .conststring
    fsl_clock_mk64f12.o(i.CLOCK_SYS_EnableSpiClock) refers to fsl_clock_mk64f12.o(.constdata) for spiGateTable
    fsl_clock_mk64f12.o(i.CLOCK_SYS_EnableUartClock) refers to assert.o(.text) for __aeabi_assert
    fsl_clock_mk64f12.o(i.CLOCK_SYS_EnableUartClock) refers to fsl_clock_mk64f12.o(i.SIM_HAL_EnableClock) for SIM_HAL_EnableClock
    fsl_clock_mk64f12.o(i.CLOCK_SYS_EnableUartClock) refers to fsl_clock_mk64f12.o(.conststring) for .conststring
    fsl_clock_mk64f12.o(i.CLOCK_SYS_EnableUartClock) refers to fsl_clock_mk64f12.o(.constdata) for uartGateTable
    fsl_clock_mk64f12.o(i.CLOCK_SYS_FllStableDelay) refers to fsl_clock_mk64f12.o(i.CLOCK_SYS_GetCoreClockFreq) for CLOCK_SYS_GetCoreClockFreq
    fsl_clock_mk64f12.o(i.CLOCK_SYS_GetAdcGateCmd) refers to assert.o(.text) for __aeabi_assert
    fsl_clock_mk64f12.o(i.CLOCK_SYS_GetAdcGateCmd) refers to fsl_clock_mk64f12.o(i.SIM_HAL_GetGateCmd) for SIM_HAL_GetGateCmd
    fsl_clock_mk64f12.o(i.CLOCK_SYS_GetAdcGateCmd) refers to fsl_clock_mk64f12.o(.conststring) for .conststring
    fsl_clock_mk64f12.o(i.CLOCK_SYS_GetAdcGateCmd) refers to fsl_clock_mk64f12.o(.constdata) for adcGateTable
    fsl_clock_mk64f12.o(i.CLOCK_SYS_GetBusClockFreq) refers to fsl_mcg_hal.o(i.CLOCK_HAL_GetOutClk) for CLOCK_HAL_GetOutClk
    fsl_clock_mk64f12.o(i.CLOCK_SYS_GetCoreClockFreq) refers to fsl_mcg_hal.o(i.CLOCK_HAL_GetOutClk) for CLOCK_HAL_GetOutClk
    fsl_clock_mk64f12.o(i.CLOCK_SYS_GetDacGateCmd) refers to assert.o(.text) for __aeabi_assert
    fsl_clock_mk64f12.o(i.CLOCK_SYS_GetDacGateCmd) refers to fsl_clock_mk64f12.o(i.SIM_HAL_GetGateCmd) for SIM_HAL_GetGateCmd
    fsl_clock_mk64f12.o(i.CLOCK_SYS_GetDacGateCmd) refers to fsl_clock_mk64f12.o(.conststring) for .conststring
    fsl_clock_mk64f12.o(i.CLOCK_SYS_GetDacGateCmd) refers to fsl_clock_mk64f12.o(.constdata) for dacGateTable
    fsl_clock_mk64f12.o(i.CLOCK_SYS_GetEnetRmiiFreq) refers to fsl_clock_mk64f12.o(i.CLOCK_SYS_GetOsc0ExternalRefClockFreq) for CLOCK_SYS_GetOsc0ExternalRefClockFreq
    fsl_clock_mk64f12.o(i.CLOCK_SYS_GetEnetRmiiFreq) refers to fsl_clock_mk64f12.o(.data) for g_enet1588ClkInFreq
    fsl_clock_mk64f12.o(i.CLOCK_SYS_GetEnetTimeStampFreq) refers to fsl_clock_mk64f12.o(i.CLOCK_SYS_GetCoreClockFreq) for CLOCK_SYS_GetCoreClockFreq
    fsl_clock_mk64f12.o(i.CLOCK_SYS_GetEnetTimeStampFreq) refers to fsl_clock_mk64f12.o(i.CLOCK_SYS_GetPllFllClockFreq) for CLOCK_SYS_GetPllFllClockFreq
    fsl_clock_mk64f12.o(i.CLOCK_SYS_GetEnetTimeStampFreq) refers to fsl_clock_mk64f12.o(i.CLOCK_SYS_GetOsc0ExternalRefClockFreq) for CLOCK_SYS_GetOsc0ExternalRefClockFreq
    fsl_clock_mk64f12.o(i.CLOCK_SYS_GetEnetTimeStampFreq) refers to fsl_clock_mk64f12.o(.data) for g_enet1588ClkInFreq
    fsl_clock_mk64f12.o(i.CLOCK_SYS_GetExternalRefClock32kFreq) refers to fsl_mcg_hal.o(.data) for g_xtal0ClkFreq
    fsl_clock_mk64f12.o(i.CLOCK_SYS_GetFlashClockFreq) refers to fsl_mcg_hal.o(i.CLOCK_HAL_GetOutClk) for CLOCK_HAL_GetOutClk
    fsl_clock_mk64f12.o(i.CLOCK_SYS_GetFlexbusFreq) refers to fsl_mcg_hal.o(i.CLOCK_HAL_GetOutClk) for CLOCK_HAL_GetOutClk
    fsl_clock_mk64f12.o(i.CLOCK_SYS_GetFlexcanFreq) refers to fsl_clock_mk64f12.o(i.CLOCK_SYS_GetOsc0ExternalRefClockFreq) for CLOCK_SYS_GetOsc0ExternalRefClockFreq
    fsl_clock_mk64f12.o(i.CLOCK_SYS_GetFlexcanFreq) refers to fsl_clock_mk64f12.o(i.CLOCK_SYS_GetBusClockFreq) for CLOCK_SYS_GetBusClockFreq
    fsl_clock_mk64f12.o(i.CLOCK_SYS_GetFreq) refers to fsl_clock_mk64f12.o(i.CLOCK_SYS_GetCoreClockFreq) for CLOCK_SYS_GetCoreClockFreq
    fsl_clock_mk64f12.o(i.CLOCK_SYS_GetFreq) refers to fsl_clock_mk64f12.o(i.CLOCK_SYS_GetSystemClockFreq) for CLOCK_SYS_GetSystemClockFreq
    fsl_clock_mk64f12.o(i.CLOCK_SYS_GetFreq) refers to fsl_clock_mk64f12.o(i.CLOCK_SYS_GetBusClockFreq) for CLOCK_SYS_GetBusClockFreq
    fsl_clock_mk64f12.o(i.CLOCK_SYS_GetFreq) refers to fsl_clock_mk64f12.o(i.CLOCK_SYS_GetFlexbusFreq) for CLOCK_SYS_GetFlexbusFreq
    fsl_clock_mk64f12.o(i.CLOCK_SYS_GetFreq) refers to fsl_clock_mk64f12.o(i.CLOCK_SYS_GetFlashClockFreq) for CLOCK_SYS_GetFlashClockFreq
    fsl_clock_mk64f12.o(i.CLOCK_SYS_GetFreq) refers to fsl_clock_mk64f12.o(i.CLOCK_SYS_GetExternalRefClock32kFreq) for CLOCK_SYS_GetExternalRefClock32kFreq
    fsl_clock_mk64f12.o(i.CLOCK_SYS_GetFreq) refers to fsl_clock_mk64f12.o(i.CLOCK_SYS_GetOsc0ExternalRefClockFreq) for CLOCK_SYS_GetOsc0ExternalRefClockFreq
    fsl_clock_mk64f12.o(i.CLOCK_SYS_GetFreq) refers to fsl_clock_mk64f12.o(i.CLOCK_SYS_GetRtcOutFreq) for CLOCK_SYS_GetRtcOutFreq
    fsl_clock_mk64f12.o(i.CLOCK_SYS_GetFreq) refers to fsl_mcg_hal.o(i.CLOCK_HAL_GetFixedFreqClk) for CLOCK_HAL_GetFixedFreqClk
    fsl_clock_mk64f12.o(i.CLOCK_SYS_GetFreq) refers to fsl_mcg_hal.o(i.CLOCK_HAL_GetFllClk) for CLOCK_HAL_GetFllClk
    fsl_clock_mk64f12.o(i.CLOCK_SYS_GetFreq) refers to fsl_mcg_hal.o(i.CLOCK_HAL_GetPll0Clk) for CLOCK_HAL_GetPll0Clk
    fsl_clock_mk64f12.o(i.CLOCK_SYS_GetFreq) refers to fsl_mcg_hal.o(i.CLOCK_HAL_GetOutClk) for CLOCK_HAL_GetOutClk
    fsl_clock_mk64f12.o(i.CLOCK_SYS_GetFreq) refers to fsl_mcg_hal.o(i.CLOCK_HAL_GetInternalRefClk) for CLOCK_HAL_GetInternalRefClk
    fsl_clock_mk64f12.o(i.CLOCK_SYS_GetFtmExternalFreq) refers to fsl_sim_hal_mk64f12.o(i.SIM_HAL_GetFtmExternalClkPinMode) for SIM_HAL_GetFtmExternalClkPinMode
    fsl_clock_mk64f12.o(i.CLOCK_SYS_GetFtmExternalFreq) refers to fsl_clock_mk64f12.o(.data) for g_ftmClkFreq
    fsl_clock_mk64f12.o(i.CLOCK_SYS_GetFtmGateCmd) refers to assert.o(.text) for __aeabi_assert
    fsl_clock_mk64f12.o(i.CLOCK_SYS_GetFtmGateCmd) refers to fsl_clock_mk64f12.o(i.SIM_HAL_GetGateCmd) for SIM_HAL_GetGateCmd
    fsl_clock_mk64f12.o(i.CLOCK_SYS_GetFtmGateCmd) refers to fsl_clock_mk64f12.o(.conststring) for .conststring
    fsl_clock_mk64f12.o(i.CLOCK_SYS_GetFtmGateCmd) refers to fsl_clock_mk64f12.o(.constdata) for ftmGateTable
    fsl_clock_mk64f12.o(i.CLOCK_SYS_GetI2cGateCmd) refers to assert.o(.text) for __aeabi_assert
    fsl_clock_mk64f12.o(i.CLOCK_SYS_GetI2cGateCmd) refers to fsl_clock_mk64f12.o(i.SIM_HAL_GetGateCmd) for SIM_HAL_GetGateCmd
    fsl_clock_mk64f12.o(i.CLOCK_SYS_GetI2cGateCmd) refers to fsl_clock_mk64f12.o(.conststring) for .conststring
    fsl_clock_mk64f12.o(i.CLOCK_SYS_GetI2cGateCmd) refers to fsl_clock_mk64f12.o(.constdata) for i2cGateTable
    fsl_clock_mk64f12.o(i.CLOCK_SYS_GetLptmrFreq) refers to fsl_mcg_hal.o(i.CLOCK_HAL_GetInternalRefClk) for CLOCK_HAL_GetInternalRefClk
    fsl_clock_mk64f12.o(i.CLOCK_SYS_GetLptmrFreq) refers to fsl_clock_mk64f12.o(i.CLOCK_SYS_GetExternalRefClock32kFreq) for CLOCK_SYS_GetExternalRefClock32kFreq
    fsl_clock_mk64f12.o(i.CLOCK_SYS_GetLptmrFreq) refers to fsl_clock_mk64f12.o(i.CLOCK_SYS_GetOsc0ExternalRefClockFreq) for CLOCK_SYS_GetOsc0ExternalRefClockFreq
    fsl_clock_mk64f12.o(i.CLOCK_SYS_GetOsc0ExternalRefClockFreq) refers to fsl_clock_manager_common.o(.constdata) for g_oscBase
    fsl_clock_mk64f12.o(i.CLOCK_SYS_GetOsc0ExternalRefClockFreq) refers to fsl_mcg_hal.o(.data) for g_xtal0ClkFreq
    fsl_clock_mk64f12.o(i.CLOCK_SYS_GetPllFllClockFreq) refers to fsl_mcg_hal.o(i.CLOCK_HAL_GetFllClk) for CLOCK_HAL_GetFllClk
    fsl_clock_mk64f12.o(i.CLOCK_SYS_GetPllFllClockFreq) refers to fsl_mcg_hal.o(i.CLOCK_HAL_GetPll0Clk) for CLOCK_HAL_GetPll0Clk
    fsl_clock_mk64f12.o(i.CLOCK_SYS_GetPortFilterFreq) refers to fsl_clock_mk64f12.o(i.CLOCK_SYS_GetBusClockFreq) for CLOCK_SYS_GetBusClockFreq
    fsl_clock_mk64f12.o(i.CLOCK_SYS_GetPortGateCmd) refers to assert.o(.text) for __aeabi_assert
    fsl_clock_mk64f12.o(i.CLOCK_SYS_GetPortGateCmd) refers to fsl_clock_mk64f12.o(i.SIM_HAL_GetGateCmd) for SIM_HAL_GetGateCmd
    fsl_clock_mk64f12.o(i.CLOCK_SYS_GetPortGateCmd) refers to fsl_clock_mk64f12.o(.conststring) for .conststring
    fsl_clock_mk64f12.o(i.CLOCK_SYS_GetPortGateCmd) refers to fsl_clock_mk64f12.o(.constdata) for portGateTable
    fsl_clock_mk64f12.o(i.CLOCK_SYS_GetRtcOutFreq) refers to fsl_mcg_hal.o(.data) for g_xtalRtcClkFreq
    fsl_clock_mk64f12.o(i.CLOCK_SYS_GetSaiFreq) refers to fsl_mcg_hal.o(i.CLOCK_HAL_GetPll0Clk) for CLOCK_HAL_GetPll0Clk
    fsl_clock_mk64f12.o(i.CLOCK_SYS_GetSaiFreq) refers to fsl_clock_mk64f12.o(i.CLOCK_SYS_GetOsc0ExternalRefClockFreq) for CLOCK_SYS_GetOsc0ExternalRefClockFreq
    fsl_clock_mk64f12.o(i.CLOCK_SYS_GetSaiFreq) refers to fsl_clock_mk64f12.o(i.CLOCK_SYS_GetSystemClockFreq) for CLOCK_SYS_GetSystemClockFreq
    fsl_clock_mk64f12.o(i.CLOCK_SYS_GetSdhcFreq) refers to fsl_clock_mk64f12.o(i.CLOCK_SYS_GetCoreClockFreq) for CLOCK_SYS_GetCoreClockFreq
    fsl_clock_mk64f12.o(i.CLOCK_SYS_GetSdhcFreq) refers to fsl_clock_mk64f12.o(i.CLOCK_SYS_GetPllFllClockFreq) for CLOCK_SYS_GetPllFllClockFreq
    fsl_clock_mk64f12.o(i.CLOCK_SYS_GetSdhcFreq) refers to fsl_clock_mk64f12.o(i.CLOCK_SYS_GetOsc0ExternalRefClockFreq) for CLOCK_SYS_GetOsc0ExternalRefClockFreq
    fsl_clock_mk64f12.o(i.CLOCK_SYS_GetSdhcFreq) refers to fsl_clock_mk64f12.o(.data) for g_sdhcClkInFreq
    fsl_clock_mk64f12.o(i.CLOCK_SYS_GetSpiGateCmd) refers to assert.o(.text) for __aeabi_assert
    fsl_clock_mk64f12.o(i.CLOCK_SYS_GetSpiGateCmd) refers to fsl_clock_mk64f12.o(i.SIM_HAL_GetGateCmd) for SIM_HAL_GetGateCmd
    fsl_clock_mk64f12.o(i.CLOCK_SYS_GetSpiGateCmd) refers to fsl_clock_mk64f12.o(.conststring) for .conststring
    fsl_clock_mk64f12.o(i.CLOCK_SYS_GetSpiGateCmd) refers to fsl_clock_mk64f12.o(.constdata) for spiGateTable
    fsl_clock_mk64f12.o(i.CLOCK_SYS_GetSystemClockFreq) refers to fsl_mcg_hal.o(i.CLOCK_HAL_GetOutClk) for CLOCK_HAL_GetOutClk
    fsl_clock_mk64f12.o(i.CLOCK_SYS_GetTraceFreq) refers to fsl_mcg_hal.o(i.CLOCK_HAL_GetOutClk) for CLOCK_HAL_GetOutClk
    fsl_clock_mk64f12.o(i.CLOCK_SYS_GetTraceFreq) refers to fsl_clock_mk64f12.o(i.CLOCK_SYS_GetCoreClockFreq) for CLOCK_SYS_GetCoreClockFreq
    fsl_clock_mk64f12.o(i.CLOCK_SYS_GetUartFreq) refers to fsl_clock_mk64f12.o(i.CLOCK_SYS_GetSystemClockFreq) for CLOCK_SYS_GetSystemClockFreq
    fsl_clock_mk64f12.o(i.CLOCK_SYS_GetUartFreq) refers to fsl_clock_mk64f12.o(i.CLOCK_SYS_GetBusClockFreq) for CLOCK_SYS_GetBusClockFreq
    fsl_clock_mk64f12.o(i.CLOCK_SYS_GetUartGateCmd) refers to assert.o(.text) for __aeabi_assert
    fsl_clock_mk64f12.o(i.CLOCK_SYS_GetUartGateCmd) refers to fsl_clock_mk64f12.o(i.SIM_HAL_GetGateCmd) for SIM_HAL_GetGateCmd
    fsl_clock_mk64f12.o(i.CLOCK_SYS_GetUartGateCmd) refers to fsl_clock_mk64f12.o(.conststring) for .conststring
    fsl_clock_mk64f12.o(i.CLOCK_SYS_GetUartGateCmd) refers to fsl_clock_mk64f12.o(.constdata) for uartGateTable
    fsl_clock_mk64f12.o(i.CLOCK_SYS_GetUsbfsFreq) refers to fsl_clock_mk64f12.o(i.CLOCK_SYS_GetPllFllClockFreq) for CLOCK_SYS_GetPllFllClockFreq
    fsl_clock_mk64f12.o(i.CLOCK_SYS_GetUsbfsFreq) refers to fsl_sim_hal_mk64f12.o(i.CLOCK_HAL_GetUsbfsDiv) for CLOCK_HAL_GetUsbfsDiv
    fsl_clock_mk64f12.o(i.CLOCK_SYS_GetUsbfsFreq) refers to fsl_clock_mk64f12.o(.data) for g_usbClkInFreq
    fsl_clock_mk64f12.o(i.CLOCK_SYS_GetWdogFreq) refers to fsl_clock_mk64f12.o(i.CLOCK_SYS_GetBusClockFreq) for CLOCK_SYS_GetBusClockFreq
    fsl_clock_mk64f12.o(i.CLOCK_SYS_SetConfiguration) refers to assert.o(.text) for __aeabi_assert
    fsl_clock_mk64f12.o(i.CLOCK_SYS_SetConfiguration) refers to fsl_sim_hal_mk64f12.o(i.CLOCK_HAL_SetOutDiv) for CLOCK_HAL_SetOutDiv
    fsl_clock_mk64f12.o(i.CLOCK_SYS_SetConfiguration) refers to fsl_clock_manager.o(i.CLOCK_SYS_SetMcgMode) for CLOCK_SYS_SetMcgMode
    fsl_clock_mk64f12.o(i.CLOCK_SYS_SetConfiguration) refers to fsl_clock_mk64f12.o(i.CLOCK_SYS_SetSimConfigration) for CLOCK_SYS_SetSimConfigration
    fsl_clock_mk64f12.o(i.CLOCK_SYS_SetConfiguration) refers to fsl_clock_manager.o(i.CLOCK_SYS_SetOscerConfigration) for CLOCK_SYS_SetOscerConfigration
    fsl_clock_mk64f12.o(i.CLOCK_SYS_SetConfiguration) refers to fsl_clock_mk64f12.o(i.CLOCK_SYS_GetCoreClockFreq) for CLOCK_SYS_GetCoreClockFreq
    fsl_clock_mk64f12.o(i.CLOCK_SYS_SetConfiguration) refers to fsl_clock_mk64f12.o(.conststring) for .conststring
    fsl_clock_mk64f12.o(i.CLOCK_SYS_SetConfiguration) refers to fsl_clock_mk64f12.o(i.CLOCK_SYS_FllStableDelay) for CLOCK_SYS_FllStableDelay
    fsl_clock_mk64f12.o(i.CLOCK_SYS_SetConfiguration) refers to system_mk64f12.o(.data) for SystemCoreClock
    fsl_clock_mk64f12.o(i.CLOCK_SYS_SetSimConfigration) refers to fsl_sim_hal_mk64f12.o(i.CLOCK_HAL_SetOutDiv) for CLOCK_HAL_SetOutDiv
    fsl_clock_manager.o(i.CLOCK_SYS_GetCurrentConfiguration) refers to fsl_clock_manager.o(.bss) for g_clockState
    fsl_clock_manager.o(i.CLOCK_SYS_GetErrorCallback) refers to fsl_clock_manager.o(.bss) for g_clockState
    fsl_clock_manager.o(i.CLOCK_SYS_Init) refers to assert.o(.text) for __aeabi_assert
    fsl_clock_manager.o(i.CLOCK_SYS_Init) refers to fsl_clock_manager.o(.conststring) for .conststring
    fsl_clock_manager.o(i.CLOCK_SYS_Init) refers to fsl_clock_manager.o(.bss) for g_clockState
    fsl_clock_manager.o(i.CLOCK_SYS_OscDeinit) refers to assert.o(.text) for __aeabi_assert
    fsl_clock_manager.o(i.CLOCK_SYS_OscDeinit) refers to fsl_clock_manager.o(i.OSC_HAL_SetExternalRefClkInStopModeCmd) for OSC_HAL_SetExternalRefClkInStopModeCmd
    fsl_clock_manager.o(i.CLOCK_SYS_OscDeinit) refers to fsl_clock_manager.o(i.OSC_HAL_SetExternalRefClkCmd) for OSC_HAL_SetExternalRefClkCmd
    fsl_clock_manager.o(i.CLOCK_SYS_OscDeinit) refers to fsl_mcg_hal.o(i.CLOCK_HAL_SetOsc0Mode) for CLOCK_HAL_SetOsc0Mode
    fsl_clock_manager.o(i.CLOCK_SYS_OscDeinit) refers to fsl_clock_manager.o(.conststring) for .conststring
    fsl_clock_manager.o(i.CLOCK_SYS_OscDeinit) refers to fsl_clock_manager_common.o(.constdata) for g_oscBase
    fsl_clock_manager.o(i.CLOCK_SYS_OscDeinit) refers to fsl_mcg_hal.o(.data) for g_xtal0ClkFreq
    fsl_clock_manager.o(i.CLOCK_SYS_OscInit) refers to assert.o(.text) for __aeabi_assert
    fsl_clock_manager.o(i.CLOCK_SYS_OscInit) refers to fsl_osc_hal.o(i.OSC_HAL_SetCapacitor) for OSC_HAL_SetCapacitor
    fsl_clock_manager.o(i.CLOCK_SYS_OscInit) refers to fsl_clock_manager.o(i.CLOCK_SYS_SetOscerConfigration) for CLOCK_SYS_SetOscerConfigration
    fsl_clock_manager.o(i.CLOCK_SYS_OscInit) refers to fsl_mcg_hal.o(i.CLOCK_HAL_SetOsc0Mode) for CLOCK_HAL_SetOsc0Mode
    fsl_clock_manager.o(i.CLOCK_SYS_OscInit) refers to fsl_clock_manager.o(.conststring) for .conststring
    fsl_clock_manager.o(i.CLOCK_SYS_OscInit) refers to fsl_clock_manager_common.o(.constdata) for g_oscBase
    fsl_clock_manager.o(i.CLOCK_SYS_OscInit) refers to fsl_mcg_hal.o(.data) for g_xtal0ClkFreq
    fsl_clock_manager.o(i.CLOCK_SYS_RtcOscDeinit) refers to assert.o(.text) for __aeabi_assert
    fsl_clock_manager.o(i.CLOCK_SYS_RtcOscDeinit) refers to fsl_clock_manager.o(i.RTC_HAL_SetOscillatorCmd) for RTC_HAL_SetOscillatorCmd
    fsl_clock_manager.o(i.CLOCK_SYS_RtcOscDeinit) refers to fsl_clock_manager.o(.conststring) for .conststring
    fsl_clock_manager.o(i.CLOCK_SYS_RtcOscDeinit) refers to fsl_rtc_common.o(.constdata) for g_rtcBase
    fsl_clock_manager.o(i.CLOCK_SYS_RtcOscInit) refers to assert.o(.text) for __aeabi_assert
    fsl_clock_manager.o(i.CLOCK_SYS_RtcOscInit) refers to fsl_clock_manager.o(i.RTC_HAL_SetOscillatorCmd) for RTC_HAL_SetOscillatorCmd
    fsl_clock_manager.o(i.CLOCK_SYS_RtcOscInit) refers to fsl_clock_manager.o(.conststring) for .conststring
    fsl_clock_manager.o(i.CLOCK_SYS_RtcOscInit) refers to fsl_rtc_common.o(.constdata) for g_rtcBase
    fsl_clock_manager.o(i.CLOCK_SYS_RtcOscInit) refers to fsl_mcg_hal.o(.data) for g_xtalRtcClkFreq
    fsl_clock_manager.o(i.CLOCK_SYS_SetMcgMode) refers to fsl_mcg_hal_modes.o(i.CLOCK_HAL_GetMcgMode) for CLOCK_HAL_GetMcgMode
    fsl_clock_manager.o(i.CLOCK_SYS_SetMcgMode) refers to fsl_clock_manager.o(i.CLOCK_SYS_SetMcgPeeToFbe) for CLOCK_SYS_SetMcgPeeToFbe
    fsl_clock_manager.o(i.CLOCK_SYS_SetMcgMode) refers to fsl_mcg_hal_modes.o(i.CLOCK_HAL_SetFbiMode) for CLOCK_HAL_SetFbiMode
    fsl_clock_manager.o(i.CLOCK_SYS_SetMcgMode) refers to fsl_clock_manager.o(i.CLOCK_HAL_SetLowPowerModeCmd) for CLOCK_HAL_SetLowPowerModeCmd
    fsl_clock_manager.o(i.CLOCK_SYS_SetMcgMode) refers to fsl_mcg_hal_modes.o(i.CLOCK_HAL_SetFbeMode) for CLOCK_HAL_SetFbeMode
    fsl_clock_manager.o(i.CLOCK_SYS_SetMcgMode) refers to fsl_clock_manager.o(i.CLOCK_HAL_SetClkOutSrc) for CLOCK_HAL_SetClkOutSrc
    fsl_clock_manager.o(i.CLOCK_SYS_SetMcgMode) refers to fsl_clock_manager.o(i.CLOCK_HAL_GetClkOutStat) for CLOCK_HAL_GetClkOutStat
    fsl_clock_manager.o(i.CLOCK_SYS_SetMcgMode) refers to fsl_mcg_hal_modes.o(i.CLOCK_HAL_SetPbeMode) for CLOCK_HAL_SetPbeMode
    fsl_clock_manager.o(i.CLOCK_SYS_SetMcgMode) refers to fsl_mcg_hal.o(i.CLOCK_HAL_UpdateFastClkInternalRefDiv) for CLOCK_HAL_UpdateFastClkInternalRefDiv
    fsl_clock_manager.o(i.CLOCK_SYS_SetMcgMode) refers to fsl_mcg_hal.o(i.CLOCK_HAL_EnablePll0InFllMode) for CLOCK_HAL_EnablePll0InFllMode
    fsl_clock_manager.o(i.CLOCK_SYS_SetMcgPeeToFbe) refers to fsl_clock_manager.o(i.CLOCK_HAL_SetClkOutSrc) for CLOCK_HAL_SetClkOutSrc
    fsl_clock_manager.o(i.CLOCK_SYS_SetMcgPeeToFbe) refers to fsl_clock_manager.o(i.CLOCK_HAL_GetClkOutStat) for CLOCK_HAL_GetClkOutStat
    fsl_clock_manager.o(i.CLOCK_SYS_SetOscerConfigration) refers to fsl_clock_manager.o(i.OSC_HAL_SetExternalRefClkCmd) for OSC_HAL_SetExternalRefClkCmd
    fsl_clock_manager.o(i.CLOCK_SYS_SetOscerConfigration) refers to fsl_clock_manager.o(i.OSC_HAL_SetExternalRefClkInStopModeCmd) for OSC_HAL_SetExternalRefClkInStopModeCmd
    fsl_clock_manager.o(i.CLOCK_SYS_SetOscerConfigration) refers to fsl_clock_manager_common.o(.constdata) for g_oscBase
    fsl_clock_manager.o(i.CLOCK_SYS_UpdateConfiguration) refers to fsl_os_abstraction_bm.o(i.OSA_EnterCritical) for OSA_EnterCritical
    fsl_clock_manager.o(i.CLOCK_SYS_UpdateConfiguration) refers to fsl_clock_mk64f12.o(i.CLOCK_SYS_SetConfiguration) for CLOCK_SYS_SetConfiguration
    fsl_clock_manager.o(i.CLOCK_SYS_UpdateConfiguration) refers to fsl_os_abstraction_bm.o(i.OSA_ExitCritical) for OSA_ExitCritical
    fsl_clock_manager.o(i.CLOCK_SYS_UpdateConfiguration) refers to fsl_clock_manager.o(.bss) for g_clockState
    fsl_interrupt_manager.o(i.INT_SYS_DisableIRQGlobal) refers to fsl_interrupt_manager.o(.data) for g_interruptDisableCount
    fsl_interrupt_manager.o(i.INT_SYS_EnableIRQGlobal) refers to fsl_interrupt_manager.o(.data) for g_interruptDisableCount
    fsl_interrupt_manager.o(i.INT_SYS_InstallHandler) refers to assert.o(.text) for __aeabi_assert
    fsl_interrupt_manager.o(i.INT_SYS_InstallHandler) refers to fsl_interrupt_manager.o(.conststring) for .conststring
    fsl_debug_console.o(i.DbgConsole_DeInit) refers to fsl_clock_mk64f12.o(i.CLOCK_SYS_DisableUartClock) for CLOCK_SYS_DisableUartClock
    fsl_debug_console.o(i.DbgConsole_DeInit) refers to fsl_debug_console.o(.bss) for s_debugConsole
    fsl_debug_console.o(i.DbgConsole_Init) refers to rt_memcpy_w.o(.text) for __aeabi_memcpy4
    fsl_debug_console.o(i.DbgConsole_Init) refers to fsl_clock_mk64f12.o(i.CLOCK_SYS_EnableUartClock) for CLOCK_SYS_EnableUartClock
    fsl_debug_console.o(i.DbgConsole_Init) refers to fsl_clock_mk64f12.o(i.CLOCK_SYS_GetUartFreq) for CLOCK_SYS_GetUartFreq
    fsl_debug_console.o(i.DbgConsole_Init) refers to fsl_uart_hal.o(i.UART_HAL_SetBaudRate) for UART_HAL_SetBaudRate
    fsl_debug_console.o(i.DbgConsole_Init) refers to fsl_uart_hal.o(i.UART_HAL_SetParityMode) for UART_HAL_SetParityMode
    fsl_debug_console.o(i.DbgConsole_Init) refers to fsl_debug_console.o(.bss) for s_debugConsole
    fsl_debug_console.o(i.DbgConsole_Init) refers to fsl_debug_console.o(.constdata) for .constdata
    fsl_debug_console.o(i.DbgConsole_Init) refers to fsl_uart_hal.o(i.UART_HAL_SendDataPolling) for UART_HAL_SendDataPolling
    fsl_debug_console.o(i.DbgConsole_Init) refers to fsl_uart_hal.o(i.UART_HAL_ReceiveDataPolling) for UART_HAL_ReceiveDataPolling
    fsl_debug_console.o(i.debug_getchar) refers to fsl_debug_console.o(.bss) for s_debugConsole
    fsl_debug_console.o(i.debug_printf) refers to print_scan.o(i._doprint) for _doprint
    fsl_debug_console.o(i.debug_printf) refers to fsl_debug_console.o(.bss) for s_debugConsole
    fsl_debug_console.o(i.debug_printf) refers to fsl_debug_console.o(i.debug_putc) for debug_putc
    fsl_debug_console.o(i.debug_putc) refers to fsl_debug_console.o(.bss) for s_debugConsole
    fsl_debug_console.o(i.debug_putchar) refers to fsl_debug_console.o(i.debug_putc) for debug_putc
    fsl_debug_console.o(i.debug_putchar) refers to fsl_debug_console.o(.bss) for s_debugConsole
    fsl_debug_console.o(i.debug_scanf) refers to fsl_debug_console.o(i.debug_getchar) for debug_getchar
    fsl_debug_console.o(i.debug_scanf) refers to print_scan.o(i.scan_prv) for scan_prv
    fsl_debug_console.o(i.debug_scanf) refers to fsl_debug_console.o(.bss) for s_debugConsole
    fsl_debug_console.o(i.fgetc) refers to fsl_debug_console.o(.bss) for s_debugConsole
    fsl_debug_console.o(i.fputc) refers to fsl_debug_console.o(.bss) for s_debugConsole
    print_scan.o(i._doprint) refers to print_scan.o(i.mknumstr) for mknumstr
    print_scan.o(i._doprint) refers to print_scan.o(i.fput_pad) for fput_pad
    print_scan.o(i._doprint) refers to strlen.o(.text) for strlen
    print_scan.o(i.scan_prv) refers to print_scan.o(i.scan_ignore_white_space) for scan_ignore_white_space
    hardware_init.o(i.hardware_init) refers to fsl_clock_mk64f12.o(i.CLOCK_SYS_EnablePortClock) for CLOCK_SYS_EnablePortClock
    hardware_init.o(i.hardware_init) refers to board.o(i.BOARD_ClockInit) for BOARD_ClockInit
    hardware_init.o(i.hardware_init) refers to board.o(i.dbg_uart_init) for dbg_uart_init
    startup_mk64f12.o(RESET) refers to startup_mk64f12.o(.text) for Reset_Handler
    startup_mk64f12.o(RESET) refers to fsl_edma_irq.o(i.DMA0_IRQHandler) for DMA0_IRQHandler
    startup_mk64f12.o(RESET) refers to fsl_edma_irq.o(i.DMA1_IRQHandler) for DMA1_IRQHandler
    startup_mk64f12.o(RESET) refers to fsl_edma_irq.o(i.DMA2_IRQHandler) for DMA2_IRQHandler
    startup_mk64f12.o(RESET) refers to fsl_edma_irq.o(i.DMA3_IRQHandler) for DMA3_IRQHandler
    startup_mk64f12.o(RESET) refers to fsl_edma_irq.o(i.DMA4_IRQHandler) for DMA4_IRQHandler
    startup_mk64f12.o(RESET) refers to fsl_edma_irq.o(i.DMA5_IRQHandler) for DMA5_IRQHandler
    startup_mk64f12.o(RESET) refers to fsl_edma_irq.o(i.DMA6_IRQHandler) for DMA6_IRQHandler
    startup_mk64f12.o(RESET) refers to fsl_edma_irq.o(i.DMA7_IRQHandler) for DMA7_IRQHandler
    startup_mk64f12.o(RESET) refers to fsl_edma_irq.o(i.DMA8_IRQHandler) for DMA8_IRQHandler
    startup_mk64f12.o(RESET) refers to fsl_edma_irq.o(i.DMA9_IRQHandler) for DMA9_IRQHandler
    startup_mk64f12.o(RESET) refers to fsl_edma_irq.o(i.DMA10_IRQHandler) for DMA10_IRQHandler
    startup_mk64f12.o(RESET) refers to fsl_edma_irq.o(i.DMA11_IRQHandler) for DMA11_IRQHandler
    startup_mk64f12.o(RESET) refers to fsl_edma_irq.o(i.DMA12_IRQHandler) for DMA12_IRQHandler
    startup_mk64f12.o(RESET) refers to fsl_edma_irq.o(i.DMA13_IRQHandler) for DMA13_IRQHandler
    startup_mk64f12.o(RESET) refers to fsl_edma_irq.o(i.DMA14_IRQHandler) for DMA14_IRQHandler
    startup_mk64f12.o(RESET) refers to fsl_edma_irq.o(i.DMA15_IRQHandler) for DMA15_IRQHandler
    startup_mk64f12.o(RESET) refers to i2c_mk64f.o(i.I2C0_IRQHandler) for I2C0_IRQHandler
    startup_mk64f12.o(RESET) refers to i2c_mk64f.o(i.I2C1_IRQHandler) for I2C1_IRQHandler
    startup_mk64f12.o(RESET) refers to headsup.o(i.PIT0_IRQHandler) for PIT0_IRQHandler
    startup_mk64f12.o(RESET) refers to headsup.o(i.PIT1_IRQHandler) for PIT1_IRQHandler
    startup_mk64f12.o(RESET) refers to headsup.o(i.PORTA_IRQHandler) for PORTA_IRQHandler
    startup_mk64f12.o(RESET) refers to i2c_mk64f.o(i.I2C2_IRQHandler) for I2C2_IRQHandler
    startup_mk64f12.o(.text) refers to startup_mk64f12.o(FlashConfig) for FlashConfig
    startup_mk64f12.o(.text) refers to system_mk64f12.o(i.SystemInit) for SystemInit
    startup_mk64f12.o(.text) refers to startup.o(i.init_data_bss) for init_data_bss
    startup_mk64f12.o(.text) refers to __main.o(!!!main) for __main
    system_mk64f12.o(i.SystemCoreClockUpdate) refers to system_mk64f12.o(.data) for SystemCoreClock
    malloc.o(.text) refers (Special) to hguard.o(.text) for __heap$guard
    malloc.o(.text) refers (Special) to init_alloc.o(.text) for _init_alloc
    malloc.o(.text) refers to rt_heap_descriptor_intlibspace.o(.text) for __rt_heap_descriptor
    malloc.o(.text) refers to heapstubs.o(.text) for __Heap_Alloc
    free.o(.text) refers (Special) to hguard.o(.text) for __heap$guard
    free.o(.text) refers to rt_heap_descriptor_intlibspace.o(.text) for __rt_heap_descriptor
    free.o(.text) refers to heapstubs.o(.text) for __Heap_Free
    calloc.o(.text) refers to h1_alloc.o(.text) for malloc
    calloc.o(.text) refers to rt_memclr.o(.text) for __aeabi_memclr
    h1_alloc.o(.text) refers (Special) to h1_init.o(.text) for __Heap_Initialize
    h1_alloc.o(.text) refers to rt_heap_descriptor_intlibspace.o(.text) for __rt_heap_descriptor
    h1_alloc.o(.text) refers to init_alloc.o(.text) for __Heap_Full
    h1_free.o(.text) refers to rt_heap_descriptor_intlibspace.o(.text) for __rt_heap_descriptor
    h1_alloc_mt.o(.text) refers (Special) to h1_init.o(.text) for __Heap_Initialize
    h1_alloc_mt.o(.text) refers to init_alloc.o(.text) for __Heap_Full
    h1_alloc_mt.o(.text) refers to rt_heap_descriptor_intlibspace.o(.text) for __rt_heap_descriptor
    h1_free_mt.o(.text) refers to rt_heap_descriptor_intlibspace.o(.text) for __rt_heap_descriptor
    heap2.o(i._FDIterate) refers to heap2.o(.conststring) for .conststring
    heap2.o(i.___Heap_ProvideMemory$realtime) refers to fdtree.o(i._FDTree_Delete) for _FDTree_Delete
    heap2.o(i.___Heap_ProvideMemory$realtime) refers to fdtree.o(i._FDTree_Insert) for _FDTree_Insert
    heap2.o(i.___Heap_Stats$realtime) refers to heap2.o(i._Heap2_StatsIterate) for _Heap2_StatsIterate
    heap2.o(i.___Heap_Valid$realtime) refers to heap2.o(i._FDIterate) for _FDIterate
    heap2.o(i.___Heap_Valid$realtime) refers to heap2.o(.conststring) for .conststring
    heap2.o(i._free$realtime) refers to rt_heap_descriptor_intlibspace.o(.text) for __rt_heap_descriptor
    heap2.o(i._free$realtime) refers to fdtree.o(i._FDTree_Delete) for _FDTree_Delete
    heap2.o(i._free$realtime) refers to fdtree.o(i._FDTree_Insert) for _FDTree_Insert
    heap2.o(i._malloc$realtime) refers to rt_heap_descriptor_intlibspace.o(.text) for __rt_heap_descriptor
    heap2.o(i._malloc$realtime) refers to fdtree.o(i._FDTree_FindFirst) for _FDTree_FindFirst
    heap2.o(i._malloc$realtime) refers to init_alloc.o(.text) for __Heap_Full
    heap2.o(i._malloc$realtime) refers to fdtree.o(i._FDTree_RemoveNode) for _FDTree_RemoveNode
    heap2.o(i._malloc$realtime) refers to fdtree.o(i._FDTree_Insert) for _FDTree_Insert
    heap2.o(i._posix_memalign$realtime) refers to rt_heap_descriptor_intlibspace.o(.text) for __rt_heap_descriptor
    heap2.o(i._posix_memalign$realtime) refers to fdtree.o(i._FDTree_FindFirst) for _FDTree_FindFirst
    heap2.o(i._posix_memalign$realtime) refers to init_alloc.o(.text) for __Heap_Full
    heap2.o(i._posix_memalign$realtime) refers to fdtree.o(i._FDTree_RemoveNode) for _FDTree_RemoveNode
    heap2.o(i._posix_memalign$realtime) refers to fdtree.o(i._FDTree_Insert) for _FDTree_Insert
    heap2.o(i._realloc$realtime) refers to rt_heap_descriptor_intlibspace.o(.text) for __rt_heap_descriptor
    heap2.o(i._realloc$realtime) refers to fdtree.o(i._FDTree_Insert) for _FDTree_Insert
    heap2.o(i._realloc$realtime) refers to h1_free.o(.text) for free
    heap2.o(i._realloc$realtime) refers to h1_alloc.o(.text) for malloc
    heap2.o(i._realloc$realtime) refers to fdtree.o(i._FDTree_Delete) for _FDTree_Delete
    heap2.o(i._realloc$realtime) refers to rt_memcpy_w.o(.text) for __aeabi_memcpy4
    heap2mt.o(i._FDIterate) refers to heap2mt.o(.conststring) for .conststring
    heap2mt.o(i.___Heap_Initialize$realtime$concurrent) refers to mutex_dummy.o(.text) for _mutex_initialize
    heap2mt.o(i.___Heap_ProvideMemory$realtime$concurrent) refers to fdtree.o(i._FDTree_Delete) for _FDTree_Delete
    heap2mt.o(i.___Heap_ProvideMemory$realtime$concurrent) refers to fdtree.o(i._FDTree_Insert) for _FDTree_Insert
    heap2mt.o(i.___Heap_Stats$realtime$concurrent) refers to heap2mt.o(i._Heap2_StatsIterate) for _Heap2_StatsIterate
    heap2mt.o(i.___Heap_Valid$realtime$concurrent) refers to heap2mt.o(i._FDIterate) for _FDIterate
    heap2mt.o(i.___Heap_Valid$realtime$concurrent) refers to heap2mt.o(.conststring) for .conststring
    heap2mt.o(i._free$realtime$concurrent) refers to rt_heap_descriptor_intlibspace.o(.text) for __rt_heap_descriptor
    heap2mt.o(i._free$realtime$concurrent) refers to fdtree.o(i._FDTree_Delete) for _FDTree_Delete
    heap2mt.o(i._free$realtime$concurrent) refers to fdtree.o(i._FDTree_Insert) for _FDTree_Insert
    heap2mt.o(i._malloc$realtime$concurrent) refers to rt_heap_descriptor_intlibspace.o(.text) for __rt_heap_descriptor
    heap2mt.o(i._malloc$realtime$concurrent) refers to fdtree.o(i._FDTree_FindFirst) for _FDTree_FindFirst
    heap2mt.o(i._malloc$realtime$concurrent) refers to init_alloc.o(.text) for __Heap_Full
    heap2mt.o(i._malloc$realtime$concurrent) refers to fdtree.o(i._FDTree_RemoveNode) for _FDTree_RemoveNode
    heap2mt.o(i._malloc$realtime$concurrent) refers to fdtree.o(i._FDTree_Insert) for _FDTree_Insert
    heap2mt.o(i._posix_memalign$realtime$concurrent) refers to rt_heap_descriptor_intlibspace.o(.text) for __rt_heap_descriptor
    heap2mt.o(i._posix_memalign$realtime$concurrent) refers to fdtree.o(i._FDTree_FindFirst) for _FDTree_FindFirst
    heap2mt.o(i._posix_memalign$realtime$concurrent) refers to init_alloc.o(.text) for __Heap_Full
    heap2mt.o(i._posix_memalign$realtime$concurrent) refers to fdtree.o(i._FDTree_RemoveNode) for _FDTree_RemoveNode
    heap2mt.o(i._posix_memalign$realtime$concurrent) refers to fdtree.o(i._FDTree_Insert) for _FDTree_Insert
    heap2mt.o(i._realloc$realtime$concurrent) refers to rt_heap_descriptor_intlibspace.o(.text) for __rt_heap_descriptor
    heap2mt.o(i._realloc$realtime$concurrent) refers to fdtree.o(i._FDTree_Insert) for _FDTree_Insert
    heap2mt.o(i._realloc$realtime$concurrent) refers to h1_free.o(.text) for free
    heap2mt.o(i._realloc$realtime$concurrent) refers to h1_alloc.o(.text) for malloc
    heap2mt.o(i._realloc$realtime$concurrent) refers to fdtree.o(i._FDTree_Delete) for _FDTree_Delete
    heap2mt.o(i._realloc$realtime$concurrent) refers to rt_memcpy_w.o(.text) for __aeabi_memcpy4
    rand.o(.emb_text) refers (Special) to libinit2.o(.ARM.Collect$$libinit$$0000000D) for __rt_lib_init_rand_2
    rand.o(.emb_text) refers to rand.o(.text) for _rand_init
    rand.o(.emb_text) refers to rand.o(.bss) for _random_number_data
    rand.o(.text) refers (Special) to libinit2.o(.ARM.Collect$$libinit$$0000000D) for __rt_lib_init_rand_2
    rand.o(.text) refers to rand.o(.bss) for .bss
    rand.o(.bss) refers (Special) to libinit2.o(.ARM.Collect$$libinit$$0000000D) for __rt_lib_init_rand_2
    assert.o(.text) refers to assert_puts.o(.text) for __assert_puts
    assert.o(.text) refers to abort.o(.text) for abort
    rt_memclr.o(.text) refers to rt_memclr_w.o(.text) for _memset_w
    __main.o(!!!main) refers to __rtentry.o(.ARM.Collect$$rtentry$$00000000) for __rt_entry
    __rtentry.o(.ARM.Collect$$rtentry$$00000000) refers (Special) to __rtentry2.o(.ARM.Collect$$rtentry$$0000000A) for __rt_entry_li
    __rtentry.o(.ARM.Collect$$rtentry$$00000000) refers (Special) to __rtentry2.o(.ARM.Collect$$rtentry$$0000000D) for __rt_entry_main
    __rtentry.o(.ARM.Collect$$rtentry$$00000000) refers (Special) to __rtentry2.o(.ARM.Collect$$rtentry$$0000000C) for __rt_entry_postli_1
    __rtentry.o(.ARM.Collect$$rtentry$$00000000) refers (Special) to __rtentry2.o(.ARM.Collect$$rtentry$$00000009) for __rt_entry_postsh_1
    __rtentry.o(.ARM.Collect$$rtentry$$00000000) refers (Special) to __rtentry2.o(.ARM.Collect$$rtentry$$00000002) for __rt_entry_presh_1
    __rtentry.o(.ARM.Collect$$rtentry$$00000000) refers (Special) to __rtentry7.o(.ARM.Collect$$rtentry$$00000007) for __rt_entry_sh
    aeabi_ldiv0_sigfpe.o(.text) refers to rt_div0.o(.text) for __rt_div0
    rt_heap_descriptor.o(.text) refers to rt_heap_descriptor.o(.bss) for __rt_heap_descriptor_data
    rt_heap_descriptor_intlibspace.o(.text) refers to libspace.o(.bss) for __libspace_start
    init_alloc.o(.text) refers (Special) to hguard.o(.text) for __heap$guard
    init_alloc.o(.text) refers (Special) to libinit5.o(.ARM.Collect$$libinit$$00000008) for __rt_lib_init_heap_2
    init_alloc.o(.text) refers (Special) to maybetermalloc1.o(.emb_text) for _maybe_terminate_alloc
    init_alloc.o(.text) refers to h1_extend.o(.text) for __Heap_ProvideMemory
    init_alloc.o(.text) refers to defsig_rtmem_outer.o(.text) for __rt_SIGRTMEM
    init_alloc.o(.text) refers to rt_heap_descriptor_intlibspace.o(.text) for __rt_heap_descriptor
    init_alloc.o(.text) refers to h1_init.o(.text) for __Heap_Initialize
    h1_init_mt.o(.text) refers to mutex_dummy.o(.text) for _mutex_initialize
    abort.o(.text) refers to defsig_abrt_outer.o(.text) for __rt_SIGABRT
    abort.o(.text) refers (Weak) to libshutdown.o(.ARM.Collect$$libshutdown$$00000000) for __rt_lib_shutdown
    abort.o(.text) refers to sys_exit.o(.text) for _sys_exit
    assert_puts.o(.text) refers to sys_wrch.o(.text) for _ttywrch
    _get_argv.o(.text) refers (Special) to hrguard.o(.text) for __heap_region$guard
    _get_argv.o(.text) refers to h1_alloc.o(.text) for malloc
    _get_argv.o(.text) refers to defsig_rtmem_outer.o(.text) for __rt_SIGRTMEM
    _get_argv.o(.text) refers to sys_command.o(.text) for _sys_command_string
    libinit2.o(.ARM.Collect$$libinit$$00000001) refers to fpinit.o(x$fpl$fpinit) for _fp_init
    libinit2.o(.ARM.Collect$$libinit$$00000005) refers (Weak) to init_alloc.o(.text) for _init_alloc
    libinit2.o(.ARM.Collect$$libinit$$0000000D) refers (Weak) to rand.o(.text) for _rand_init
    libinit2.o(.ARM.Collect$$libinit$$00000010) refers to libinit2.o(.ARM.Collect$$libinit$$0000000F) for .ARM.Collect$$libinit$$0000000F
    libinit2.o(.ARM.Collect$$libinit$$00000012) refers to libinit2.o(.ARM.Collect$$libinit$$0000000F) for .ARM.Collect$$libinit$$0000000F
    libinit2.o(.ARM.Collect$$libinit$$00000014) refers to libinit2.o(.ARM.Collect$$libinit$$0000000F) for .ARM.Collect$$libinit$$0000000F
    libinit2.o(.ARM.Collect$$libinit$$00000016) refers to libinit2.o(.ARM.Collect$$libinit$$0000000F) for .ARM.Collect$$libinit$$0000000F
    libinit2.o(.ARM.Collect$$libinit$$00000018) refers to libinit2.o(.ARM.Collect$$libinit$$0000000F) for .ARM.Collect$$libinit$$0000000F
    libinit2.o(.ARM.Collect$$libinit$$00000026) refers to argv_veneer.o(.emb_text) for __ARM_argv_veneer
    libinit2.o(.ARM.Collect$$libinit$$00000027) refers to argv_veneer.o(.emb_text) for __ARM_argv_veneer
    sys_wrch.o(.text) refers (Special) to use_no_semi.o(.text) for __I$use$semihosting
    sys_wrch.o(.text) refers (Special) to indicate_semi.o(.text) for __semihosting_library_function
    sys_command.o(.text) refers (Special) to use_no_semi.o(.text) for __I$use$semihosting
    sys_command.o(.text) refers (Special) to indicate_semi.o(.text) for __semihosting_library_function
    sys_exit.o(.text) refers (Special) to use_no_semi.o(.text) for __I$use$semihosting
    sys_exit.o(.text) refers (Special) to indicate_semi.o(.text) for __semihosting_library_function
    libspace.o(.text) refers to libspace.o(.bss) for __libspace_start
    __rtentry2.o(.ARM.Collect$$rtentry$$00000008) refers to boardinit2.o(.text) for _platform_post_stackheap_init
    __rtentry2.o(.ARM.Collect$$rtentry$$0000000A) refers to libinit.o(.ARM.Collect$$libinit$$00000000) for __rt_lib_init
    __rtentry2.o(.ARM.Collect$$rtentry$$0000000B) refers to boardinit3.o(.text) for _platform_post_lib_init
    __rtentry2.o(.ARM.Collect$$rtentry$$0000000D) refers to headsup.o(i.main) for main
    __rtentry2.o(.ARM.Collect$$rtentry$$0000000D) refers to exit.o(.text) for exit
    __rtentry2.o(.ARM.exidx) refers to __rtentry2.o(.ARM.Collect$$rtentry$$00000001) for .ARM.Collect$$rtentry$$00000001
    __rtentry2.o(.ARM.exidx) refers to __rtentry2.o(.ARM.Collect$$rtentry$$00000008) for .ARM.Collect$$rtentry$$00000008
    __rtentry2.o(.ARM.exidx) refers to __rtentry2.o(.ARM.Collect$$rtentry$$0000000A) for .ARM.Collect$$rtentry$$0000000A
    __rtentry2.o(.ARM.exidx) refers to __rtentry2.o(.ARM.Collect$$rtentry$$0000000B) for .ARM.Collect$$rtentry$$0000000B
    __rtentry2.o(.ARM.exidx) refers to __rtentry2.o(.ARM.Collect$$rtentry$$0000000D) for .ARM.Collect$$rtentry$$0000000D
    __rtentry4.o(.ARM.Collect$$rtentry$$00000004) refers to sys_stackheap_outer.o(.text) for __user_setup_stackheap
    __rtentry4.o(.ARM.exidx) refers to __rtentry4.o(.ARM.Collect$$rtentry$$00000004) for .ARM.Collect$$rtentry$$00000004
    __rtentry7.o(.ARM.Collect$$rtentry$$00000007) refers to __rtentry7.o(.ARM.Collect$$rtentry$$00002718) for __lit__00000000
    __rtentry7.o(__vectab_stack_and_reset_2_area) refers to __main.o(!!!main) for __main
    __rtentry7.o(.ARM.exidx) refers to __rtentry7.o(.ARM.Collect$$rtentry$$00000007) for .ARM.Collect$$rtentry$$00000007
    __rtentry7.o(.ARM.exidx) refers to __rtentry7.o(.ARM.Collect$$rtentry$$00002718) for .ARM.Collect$$rtentry$$00002718
    rt_div0.o(.text) refers to defsig_fpe_outer.o(.text) for __rt_SIGFPE
    maybetermalloc2.o(.emb_text) refers (Special) to term_alloc.o(.text) for _terminate_alloc
    h1_extend.o(.text) refers to h1_free.o(.text) for free
    h1_extend_mt.o(.text) refers to h1_free_mt.o(.text) for _free_internal
    defsig_abrt_outer.o(.text) refers to defsig_abrt_inner.o(.text) for __rt_SIGABRT_inner
    defsig_abrt_outer.o(.text) refers to defsig_exit.o(.text) for __sig_exit
    defsig_abrt_formal.o(.text) refers to rt_raise.o(.text) for __rt_raise
    defsig_rtmem_outer.o(.text) refers to defsig_rtmem_inner.o(.text) for __rt_SIGRTMEM_inner
    defsig_rtmem_outer.o(.text) refers to defsig_exit.o(.text) for __sig_exit
    defsig_rtmem_formal.o(.text) refers to rt_raise.o(.text) for __rt_raise
    heapauxa.o(.text) refers to heapauxa.o(.data) for .data
    argv_veneer.o(.emb_text) refers to no_argv.o(.text) for __ARM_get_argv
    sys_stackheap_outer.o(.text) refers to libspace.o(.text) for __user_perproc_libspace
    sys_stackheap_outer.o(.text) refers to sys_stackheap.o(.text) for __user_initial_stackheap
    rt_raise.o(.text) refers to __raise.o(.text) for __raise
    rt_raise.o(.text) refers to sys_exit.o(.text) for _sys_exit
    term_alloc.o(.text) refers (Special) to libshutdown2.o(.ARM.Collect$$libshutdown$$0000000E) for __rt_lib_shutdown_heap_2
    term_alloc.o(.text) refers to rt_heap_descriptor_intlibspace.o(.text) for __rt_heap_descriptor
    term_alloc.o(.text) refers to h1_final.o(.text) for __Heap_Finalize
    exit.o(.text) refers to rtexit.o(.ARM.Collect$$rtexit$$00000000) for __rt_exit
    defsig_exit.o(.text) refers to sys_exit.o(.text) for _sys_exit
    defsig_abrt_inner.o(.text) refers to defsig_general.o(.text) for __default_signal_display
    defsig_fpe_outer.o(.text) refers to defsig_fpe_inner.o(.text) for __rt_SIGFPE_inner
    defsig_fpe_outer.o(.text) refers to defsig_exit.o(.text) for __sig_exit
    defsig_fpe_formal.o(.text) refers to rt_raise.o(.text) for __rt_raise
    defsig_rtmem_inner.o(.text) refers to defsig_general.o(.text) for __default_signal_display
    _get_argv_nomalloc.o(.text) refers (Special) to hrguard.o(.text) for __heap_region$guard
    _get_argv_nomalloc.o(.text) refers to defsig_rtmem_outer.o(.text) for __rt_SIGRTMEM
    _get_argv_nomalloc.o(.text) refers to sys_command.o(.text) for _sys_command_string
    libinit.o(.ARM.Collect$$libinit$$00000000) refers (Special) to libinit2.o(.ARM.Collect$$libinit$$0000002E) for __rt_lib_init_alloca_1
    libinit.o(.ARM.Collect$$libinit$$00000000) refers (Special) to libinit2.o(.ARM.Collect$$libinit$$0000002C) for __rt_lib_init_argv_1
    libinit.o(.ARM.Collect$$libinit$$00000000) refers (Special) to libinit2.o(.ARM.Collect$$libinit$$0000001B) for __rt_lib_init_atexit_1
    libinit.o(.ARM.Collect$$libinit$$00000000) refers (Special) to libinit2.o(.ARM.Collect$$libinit$$00000021) for __rt_lib_init_clock_1
    libinit.o(.ARM.Collect$$libinit$$00000000) refers (Special) to libinit2.o(.ARM.Collect$$libinit$$00000032) for __rt_lib_init_cpp_1
    libinit.o(.ARM.Collect$$libinit$$00000000) refers (Special) to libinit2.o(.ARM.Collect$$libinit$$00000030) for __rt_lib_init_exceptions_1
    libinit.o(.ARM.Collect$$libinit$$00000000) refers (Special) to libinit2.o(.ARM.Collect$$libinit$$00000001) for __rt_lib_init_fp_1
    libinit.o(.ARM.Collect$$libinit$$00000000) refers (Special) to libinit2.o(.ARM.Collect$$libinit$$0000001F) for __rt_lib_init_fp_trap_1
    libinit.o(.ARM.Collect$$libinit$$00000000) refers (Special) to libinit2.o(.ARM.Collect$$libinit$$00000023) for __rt_lib_init_getenv_1
    libinit.o(.ARM.Collect$$libinit$$00000000) refers (Special) to libinit2.o(.ARM.Collect$$libinit$$0000000A) for __rt_lib_init_heap_1
    libinit.o(.ARM.Collect$$libinit$$00000000) refers (Special) to libinit2.o(.ARM.Collect$$libinit$$00000011) for __rt_lib_init_lc_collate_1
    libinit.o(.ARM.Collect$$libinit$$00000000) refers (Special) to libinit2.o(.ARM.Collect$$libinit$$00000013) for __rt_lib_init_lc_ctype_1
    libinit.o(.ARM.Collect$$libinit$$00000000) refers (Special) to libinit2.o(.ARM.Collect$$libinit$$00000015) for __rt_lib_init_lc_monetary_1
    libinit.o(.ARM.Collect$$libinit$$00000000) refers (Special) to libinit2.o(.ARM.Collect$$libinit$$00000017) for __rt_lib_init_lc_numeric_1
    libinit.o(.ARM.Collect$$libinit$$00000000) refers (Special) to libinit2.o(.ARM.Collect$$libinit$$00000019) for __rt_lib_init_lc_time_1
    libinit.o(.ARM.Collect$$libinit$$00000000) refers (Special) to libinit2.o(.ARM.Collect$$libinit$$00000004) for __rt_lib_init_preinit_1
    libinit.o(.ARM.Collect$$libinit$$00000000) refers (Special) to libinit2.o(.ARM.Collect$$libinit$$0000000E) for __rt_lib_init_rand_1
    libinit.o(.ARM.Collect$$libinit$$00000000) refers (Special) to libinit2.o(.ARM.Collect$$libinit$$00000033) for __rt_lib_init_return
    libinit.o(.ARM.Collect$$libinit$$00000000) refers (Special) to libinit2.o(.ARM.Collect$$libinit$$0000001D) for __rt_lib_init_signal_1
    libinit.o(.ARM.Collect$$libinit$$00000000) refers (Special) to libinit2.o(.ARM.Collect$$libinit$$00000025) for __rt_lib_init_stdio_1
    libinit.o(.ARM.Collect$$libinit$$00000000) refers (Special) to libinit2.o(.ARM.Collect$$libinit$$0000000C) for __rt_lib_init_user_alloc_1
    sys_stackheap.o(.text) refers (Special) to indicate_semi.o(.text) for __semihosting_library_function
    sys_stackheap.o(.text) refers to use_no_semi.o(.text) for __I$use$semihosting
    rtexit.o(.ARM.Collect$$rtexit$$00000000) refers (Special) to rtexit2.o(.ARM.Collect$$rtexit$$00000004) for __rt_exit_exit
    rtexit.o(.ARM.Collect$$rtexit$$00000000) refers (Special) to rtexit2.o(.ARM.Collect$$rtexit$$00000003) for __rt_exit_ls
    rtexit.o(.ARM.Collect$$rtexit$$00000000) refers (Special) to rtexit2.o(.ARM.Collect$$rtexit$$00000002) for __rt_exit_prels_1
    rtexit.o(.ARM.exidx) refers (Special) to rtexit2.o(.ARM.Collect$$rtexit$$00000004) for __rt_exit_exit
    rtexit.o(.ARM.exidx) refers (Special) to rtexit2.o(.ARM.Collect$$rtexit$$00000003) for __rt_exit_ls
    rtexit.o(.ARM.exidx) refers (Special) to rtexit2.o(.ARM.Collect$$rtexit$$00000002) for __rt_exit_prels_1
    rtexit.o(.ARM.exidx) refers to rtexit.o(.ARM.Collect$$rtexit$$00000000) for .ARM.Collect$$rtexit$$00000000
    __raise.o(.text) refers to defsig.o(CL$$defsig) for __default_signal_handler
    defsig_general.o(.text) refers to sys_wrch.o(.text) for _ttywrch
    defsig_fpe_inner.o(.text) refers to defsig_general.o(.text) for __default_signal_display
    libinit5.o(.ARM.Collect$$libinit$$00000008) refers to libinit5.o(.ARM.Collect$$libinit$$00002719) for __lit__00000000
    libinit5.o(.ARM.Collect$$libinit$$00000008) refers (Weak) to init_alloc.o(.text) for _init_alloc
    libinit5.o(.ARM.Collect$$libinit$$0000002A) refers to libinit5.o(.ARM.Collect$$libinit$$0000273B) for __lit__00000002
    libinit5.o(.ARM.Collect$$libinit$$0000002A) refers to argv_veneer.o(.emb_text) for __ARM_argv_veneer
    libshutdown2.o(.ARM.Collect$$libshutdown$$0000000D) refers (Weak) to term_alloc.o(.text) for _terminate_alloc
    rtexit2.o(.ARM.Collect$$rtexit$$00000003) refers to libshutdown.o(.ARM.Collect$$libshutdown$$00000000) for __rt_lib_shutdown
    rtexit2.o(.ARM.Collect$$rtexit$$00000004) refers to sys_exit.o(.text) for _sys_exit
    rtexit2.o(.ARM.exidx) refers to rtexit2.o(.ARM.Collect$$rtexit$$00000001) for .ARM.Collect$$rtexit$$00000001
    rtexit2.o(.ARM.exidx) refers to rtexit2.o(.ARM.Collect$$rtexit$$00000003) for .ARM.Collect$$rtexit$$00000003
    rtexit2.o(.ARM.exidx) refers to rtexit2.o(.ARM.Collect$$rtexit$$00000004) for .ARM.Collect$$rtexit$$00000004
    defsig.o(CL$$defsig) refers to defsig_abrt_inner.o(.text) for __rt_SIGABRT_inner
    defsig.o(CL$$defsig) refers to defsig_fpe_inner.o(.text) for __rt_SIGFPE_inner
    defsig.o(CL$$defsig) refers to defsig_rtmem_inner.o(.text) for __rt_SIGRTMEM_inner
    defsig_rtred_inner.o(.text) refers to defsig_general.o(.text) for __default_signal_display
    defsig_stak_inner.o(.text) refers to defsig_general.o(.text) for __default_signal_display
    defsig_pvfn_inner.o(.text) refers to defsig_general.o(.text) for __default_signal_display
    defsig_cppl_inner.o(.text) refers to defsig_general.o(.text) for __default_signal_display
    defsig_segv_inner.o(.text) refers to defsig_general.o(.text) for __default_signal_display
    defsig_other.o(.text) refers to defsig_general.o(.text) for __default_signal_display
    libshutdown.o(.ARM.Collect$$libshutdown$$00000000) refers (Special) to libshutdown2.o(.ARM.Collect$$libshutdown$$00000002) for __rt_lib_shutdown_cpp_1
    libshutdown.o(.ARM.Collect$$libshutdown$$00000000) refers (Special) to libshutdown2.o(.ARM.Collect$$libshutdown$$00000007) for __rt_lib_shutdown_fp_trap_1
    libshutdown.o(.ARM.Collect$$libshutdown$$00000000) refers (Special) to libshutdown2.o(.ARM.Collect$$libshutdown$$0000000F) for __rt_lib_shutdown_heap_1
    libshutdown.o(.ARM.Collect$$libshutdown$$00000000) refers (Special) to libshutdown2.o(.ARM.Collect$$libshutdown$$00000010) for __rt_lib_shutdown_return
    libshutdown.o(.ARM.Collect$$libshutdown$$00000000) refers (Special) to libshutdown2.o(.ARM.Collect$$libshutdown$$0000000A) for __rt_lib_shutdown_signal_1
    libshutdown.o(.ARM.Collect$$libshutdown$$00000000) refers (Special) to libshutdown2.o(.ARM.Collect$$libshutdown$$00000004) for __rt_lib_shutdown_stdio_1
    libshutdown.o(.ARM.Collect$$libshutdown$$00000000) refers (Special) to libshutdown2.o(.ARM.Collect$$libshutdown$$0000000C) for __rt_lib_shutdown_user_alloc_1


==============================================================================

Removing Unused input sections from the image.

    Removing headsup.o(.rev16_text), (4 bytes).
    Removing headsup.o(.revsh_text), (4 bytes).
    Removing headsup.o(.rrx_text), (6 bytes).
    Removing fxos8700.o(i.Accelerometer_Uninitialize), (24 bytes).
    Removing fxos8700.o(i.Magnetometer_GetState), (184 bytes).
    Removing fxos8700.o(i.Magnetometer_Initialize), (36 bytes).
    Removing fxos8700.o(i.Magnetometer_Uninitialize), (24 bytes).
    Removing i2c_mk64f.o(.rev16_text), (4 bytes).
    Removing i2c_mk64f.o(.revsh_text), (4 bytes).
    Removing i2c_mk64f.o(.rrx_text), (6 bytes).
    Removing board.o(.rev16_text), (4 bytes).
    Removing board.o(.revsh_text), (4 bytes).
    Removing board.o(.rrx_text), (6 bytes).
    Removing gpio_pins.o(.rev16_text), (4 bytes).
    Removing gpio_pins.o(.revsh_text), (4 bytes).
    Removing gpio_pins.o(.rrx_text), (6 bytes).
    Removing gpio_pins.o(.constdata), (72 bytes).
    Removing gpio_pins.o(.data), (36 bytes).
    Removing pin_mux.o(.rev16_text), (4 bytes).
    Removing pin_mux.o(.revsh_text), (4 bytes).
    Removing pin_mux.o(.rrx_text), (6 bytes).
    Removing pin_mux.o(i.PORT_HAL_SetDriveStrengthMode), (56 bytes).
    Removing pin_mux.o(i.PORT_HAL_SetOpenDrainCmd), (56 bytes).
    Removing pin_mux.o(i.PORT_HAL_SetPassiveFilterCmd), (56 bytes).
    Removing pin_mux.o(i.PORT_HAL_SetPullCmd), (56 bytes).
    Removing pin_mux.o(i.PORT_HAL_SetPullMode), (56 bytes).
    Removing pin_mux.o(i.PORT_HAL_SetSlewRateMode), (56 bytes).
    Removing pin_mux.o(i.configure_can_pins), (32 bytes).
    Removing pin_mux.o(i.configure_cmp_pins), (48 bytes).
    Removing pin_mux.o(i.configure_enet_pins), (188 bytes).
    Removing pin_mux.o(i.configure_ftm_pins), (28 bytes).
    Removing pin_mux.o(i.configure_gpio_i2c_pins), (32 bytes).
    Removing pin_mux.o(i.configure_gpio_pins), (284 bytes).
    Removing pin_mux.o(i.configure_i2c_pins), (112 bytes).
    Removing pin_mux.o(i.configure_i2s_pins), (84 bytes).
    Removing pin_mux.o(i.configure_rtc_pins), (20 bytes).
    Removing pin_mux.o(i.configure_sdhc_pins), (252 bytes).
    Removing pin_mux.o(i.configure_spi_cs0_pins), (20 bytes).
    Removing pin_mux.o(i.configure_spi_cs1_pins), (20 bytes).
    Removing pin_mux.o(i.configure_spi_pins), (108 bytes).
    Removing startup.o(.rev16_text), (4 bytes).
    Removing startup.o(.revsh_text), (4 bytes).
    Removing startup.o(.rrx_text), (6 bytes).
    Removing fsl_edma_common.o(.rev16_text), (4 bytes).
    Removing fsl_edma_common.o(.revsh_text), (4 bytes).
    Removing fsl_edma_common.o(.rrx_text), (6 bytes).
    Removing fsl_edma_driver.o(.rev16_text), (4 bytes).
    Removing fsl_edma_driver.o(.revsh_text), (4 bytes).
    Removing fsl_edma_driver.o(.rrx_text), (6 bytes).
    Removing fsl_edma_driver.o(i.EDMA_DRV_ConfigLoopTransfer), (364 bytes).
    Removing fsl_edma_driver.o(i.EDMA_DRV_ConfigScatterGatherTransfer), (404 bytes).
    Removing fsl_edma_driver.o(i.EDMA_DRV_Deinit), (128 bytes).
    Removing fsl_edma_driver.o(i.EDMA_DRV_ErrorIRQHandler), (116 bytes).
    Removing fsl_edma_driver.o(i.EDMA_DRV_Init), (204 bytes).
    Removing fsl_edma_driver.o(i.EDMA_DRV_PrepareDescriptorScatterGather), (18 bytes).
    Removing fsl_edma_driver.o(i.EDMA_DRV_PrepareDescriptorTransfer), (56 bytes).
    Removing fsl_edma_driver.o(i.EDMA_DRV_ReleaseChannel), (84 bytes).
    Removing fsl_edma_driver.o(i.EDMA_DRV_StopChannel), (40 bytes).
    Removing fsl_edma_driver.o(i.INT_SYS_DisableIRQ), (132 bytes).
    Removing fsl_edma_driver.o(i.INT_SYS_EnableIRQ), (132 bytes).
    Removing fsl_edma_driver.o(i.SIM_HAL_DisableClock), (32 bytes).
    Removing fsl_edma_driver.o(i.SIM_HAL_EnableClock), (34 bytes).
    Removing fsl_edma_irq.o(.rev16_text), (4 bytes).
    Removing fsl_edma_irq.o(.revsh_text), (4 bytes).
    Removing fsl_edma_irq.o(.rrx_text), (6 bytes).
    Removing fsl_gpio_common.o(.rev16_text), (4 bytes).
    Removing fsl_gpio_common.o(.revsh_text), (4 bytes).
    Removing fsl_gpio_common.o(.rrx_text), (6 bytes).
    Removing fsl_gpio_common.o(.constdata), (45 bytes).
    Removing fsl_gpio_driver.o(.rev16_text), (4 bytes).
    Removing fsl_gpio_driver.o(.revsh_text), (4 bytes).
    Removing fsl_gpio_driver.o(.rrx_text), (6 bytes).
    Removing fsl_gpio_driver.o(i.GPIO_DRV_ClearPinIntFlag), (72 bytes).
    Removing fsl_gpio_driver.o(i.GPIO_DRV_ClearPinOutput), (60 bytes).
    Removing fsl_gpio_driver.o(i.GPIO_DRV_GetPinDir), (68 bytes).
    Removing fsl_gpio_driver.o(i.GPIO_DRV_Init), (48 bytes).
    Removing fsl_gpio_driver.o(i.GPIO_DRV_InputPinInit), (288 bytes).
    Removing fsl_gpio_driver.o(i.GPIO_DRV_IsPinIntPending), (76 bytes).
    Removing fsl_gpio_driver.o(i.GPIO_DRV_OutputPinInit), (216 bytes).
    Removing fsl_gpio_driver.o(i.GPIO_DRV_ReadPinInput), (64 bytes).
    Removing fsl_gpio_driver.o(i.GPIO_DRV_SetDigitalFilterCmd), (40 bytes).
    Removing fsl_gpio_driver.o(i.GPIO_DRV_SetPinDir), (40 bytes).
    Removing fsl_gpio_driver.o(i.GPIO_DRV_SetPinOutput), (60 bytes).
    Removing fsl_gpio_driver.o(i.GPIO_DRV_TogglePinOutput), (60 bytes).
    Removing fsl_gpio_driver.o(i.GPIO_DRV_WritePinOutput), (40 bytes).
    Removing fsl_gpio_driver.o(i.INT_SYS_EnableIRQ), (132 bytes).
    Removing fsl_gpio_driver.o(i.PORT_HAL_SetDigitalFilterCmd), (60 bytes).
    Removing fsl_gpio_driver.o(i.PORT_HAL_SetMuxMode), (68 bytes).
    Removing fsl_gpio_driver.o(.conststring), (251 bytes).
    Removing fsl_rtc_common.o(.rev16_text), (4 bytes).
    Removing fsl_rtc_common.o(.revsh_text), (4 bytes).
    Removing fsl_rtc_common.o(.rrx_text), (6 bytes).
    Removing fsl_rtc_driver.o(.rev16_text), (4 bytes).
    Removing fsl_rtc_driver.o(.revsh_text), (4 bytes).
    Removing fsl_rtc_driver.o(.rrx_text), (6 bytes).
    Removing fsl_rtc_driver.o(i.INT_SYS_DisableIRQ), (132 bytes).
    Removing fsl_rtc_driver.o(i.INT_SYS_EnableIRQ), (132 bytes).
    Removing fsl_rtc_driver.o(i.RTC_DRV_AlarmIntAction), (160 bytes).
    Removing fsl_rtc_driver.o(i.RTC_DRV_Deinit), (96 bytes).
    Removing fsl_rtc_driver.o(i.RTC_DRV_DeinitRepeatAlarm), (12 bytes).
    Removing fsl_rtc_driver.o(i.RTC_DRV_GetAlarm), (96 bytes).
    Removing fsl_rtc_driver.o(i.RTC_DRV_GetAlarmIntCmd), (36 bytes).
    Removing fsl_rtc_driver.o(i.RTC_DRV_GetDatetime), (132 bytes).
    Removing fsl_rtc_driver.o(i.RTC_DRV_GetTimeCompensation), (32 bytes).
    Removing fsl_rtc_driver.o(i.RTC_DRV_Init), (116 bytes).
    Removing fsl_rtc_driver.o(i.RTC_DRV_InitRepeatAlarm), (64 bytes).
    Removing fsl_rtc_driver.o(i.RTC_DRV_IsAlarmPending), (36 bytes).
    Removing fsl_rtc_driver.o(i.RTC_DRV_IsCounterEnabled), (36 bytes).
    Removing fsl_rtc_driver.o(i.RTC_DRV_SecsIntAction), (24 bytes).
    Removing fsl_rtc_driver.o(i.RTC_DRV_SetAlarm), (152 bytes).
    Removing fsl_rtc_driver.o(i.RTC_DRV_SetAlarmIntCmd), (24 bytes).
    Removing fsl_rtc_driver.o(i.RTC_DRV_SetAlarmRepeat), (148 bytes).
    Removing fsl_rtc_driver.o(i.RTC_DRV_SetDatetime), (172 bytes).
    Removing fsl_rtc_driver.o(i.RTC_DRV_SetSecsIntCmd), (24 bytes).
    Removing fsl_rtc_driver.o(i.RTC_DRV_SetTimeCompensation), (40 bytes).
    Removing fsl_rtc_driver.o(i.RTC_HAL_EnableCounter), (14 bytes).
    Removing fsl_rtc_driver.o(i.RTC_HAL_SetAlarmIntCmd), (14 bytes).
    Removing fsl_rtc_driver.o(i.RTC_HAL_SetAlarmReg), (4 bytes).
    Removing fsl_rtc_driver.o(i.RTC_HAL_SetSecsIntCmd), (14 bytes).
    Removing fsl_rtc_driver.o(i.__NVIC_ClearPendingIRQ), (28 bytes).
    Removing fsl_rtc_driver.o(.conststring), (181 bytes).
    Removing fsl_rtc_driver.o(.data), (4 bytes).
    Removing fsl_dmamux_hal.o(.rev16_text), (4 bytes).
    Removing fsl_dmamux_hal.o(.revsh_text), (4 bytes).
    Removing fsl_dmamux_hal.o(.rrx_text), (6 bytes).
    Removing fsl_dmamux_hal.o(i.DMAMUX_HAL_Init), (34 bytes).
    Removing fsl_dspi_hal.o(.rev16_text), (4 bytes).
    Removing fsl_dspi_hal.o(.revsh_text), (4 bytes).
    Removing fsl_dspi_hal.o(.rrx_text), (6 bytes).
    Removing fsl_dspi_hal.o(i.DSPI_HAL_CalculateDelay), (220 bytes).
    Removing fsl_dspi_hal.o(i.DSPI_HAL_GetFormattedCommand), (34 bytes).
    Removing fsl_dspi_hal.o(i.DSPI_HAL_Init), (76 bytes).
    Removing fsl_dspi_hal.o(i.DSPI_HAL_SetBaudDivisors), (74 bytes).
    Removing fsl_dspi_hal.o(i.DSPI_HAL_SetBaudRate), (208 bytes).
    Removing fsl_dspi_hal.o(i.DSPI_HAL_SetDataFormat), (186 bytes).
    Removing fsl_dspi_hal.o(i.DSPI_HAL_SetDelay), (126 bytes).
    Removing fsl_dspi_hal.o(i.DSPI_HAL_SetFifoCmd), (70 bytes).
    Removing fsl_dspi_hal.o(i.DSPI_HAL_SetFlushFifoCmd), (20 bytes).
    Removing fsl_dspi_hal.o(i.DSPI_HAL_SetIntMode), (22 bytes).
    Removing fsl_dspi_hal.o(i.DSPI_HAL_SetPcsPolarityMode), (30 bytes).
    Removing fsl_dspi_hal.o(i.DSPI_HAL_SetRxFifoDrainDmaIntMode), (28 bytes).
    Removing fsl_dspi_hal.o(i.DSPI_HAL_SetTxFifoFillDmaIntMode), (28 bytes).
    Removing fsl_dspi_hal.o(i.DSPI_HAL_WriteCmdDataMastermodeBlocking), (28 bytes).
    Removing fsl_dspi_hal.o(i.DSPI_HAL_WriteDataMastermode), (38 bytes).
    Removing fsl_dspi_hal.o(i.DSPI_HAL_WriteDataMastermodeBlocking), (62 bytes).
    Removing fsl_dspi_hal.o(i.DSPI_HAL_WriteDataSlavemodeBlocking), (28 bytes).
    Removing fsl_dspi_hal.o(.constdata), (160 bytes).
    Removing fsl_edma_hal.o(.rev16_text), (4 bytes).
    Removing fsl_edma_hal.o(.revsh_text), (4 bytes).
    Removing fsl_edma_hal.o(.rrx_text), (6 bytes).
    Removing fsl_edma_hal.o(i.EDMA_HAL_CancelTransfer), (26 bytes).
    Removing fsl_edma_hal.o(i.EDMA_HAL_ErrorCancelTransfer), (26 bytes).
    Removing fsl_edma_hal.o(i.EDMA_HAL_GetErrorStatus), (114 bytes).
    Removing fsl_edma_hal.o(i.EDMA_HAL_HTCDGetBeginMajorCount), (124 bytes).
    Removing fsl_edma_hal.o(i.EDMA_HAL_HTCDGetCurrentMajorCount), (124 bytes).
    Removing fsl_edma_hal.o(i.EDMA_HAL_HTCDGetFinishedBytes), (112 bytes).
    Removing fsl_edma_hal.o(i.EDMA_HAL_HTCDGetNbytes), (168 bytes).
    Removing fsl_edma_hal.o(i.EDMA_HAL_HTCDGetUnfinishedBytes), (140 bytes).
    Removing fsl_edma_hal.o(i.EDMA_HAL_HTCDSetAttribute), (128 bytes).
    Removing fsl_edma_hal.o(i.EDMA_HAL_HTCDSetChannelMinorLink), (208 bytes).
    Removing fsl_edma_hal.o(i.EDMA_HAL_HTCDSetMajorCount), (196 bytes).
    Removing fsl_edma_hal.o(i.EDMA_HAL_HTCDSetMinorLoopOffset), (164 bytes).
    Removing fsl_edma_hal.o(i.EDMA_HAL_HTCDSetNbytes), (188 bytes).
    Removing fsl_edma_hal.o(i.EDMA_HAL_HTCDSetScatterGatherLink), (108 bytes).
    Removing fsl_edma_hal.o(i.EDMA_HAL_Init), (74 bytes).
    Removing fsl_edma_hal.o(i.EDMA_HAL_STCDSetChannelMinorLink), (108 bytes).
    Removing fsl_edma_hal.o(i.EDMA_HAL_STCDSetMinorLoopOffset), (92 bytes).
    Removing fsl_gpio_hal.o(.rev16_text), (4 bytes).
    Removing fsl_gpio_hal.o(.revsh_text), (4 bytes).
    Removing fsl_gpio_hal.o(.rrx_text), (6 bytes).
    Removing fsl_gpio_hal.o(i.GPIO_HAL_WritePinOutput), (60 bytes).
    Removing fsl_i2c_hal.o(.rev16_text), (4 bytes).
    Removing fsl_i2c_hal.o(.revsh_text), (4 bytes).
    Removing fsl_i2c_hal.o(.rrx_text), (6 bytes).
    Removing fsl_i2c_hal.o(i.I2C_HAL_ClearInt), (6 bytes).
    Removing fsl_i2c_hal.o(i.I2C_HAL_ClearStartFlag), (14 bytes).
    Removing fsl_i2c_hal.o(i.I2C_HAL_GetStartFlag), (22 bytes).
    Removing fsl_i2c_hal.o(i.I2C_HAL_IsIntPending), (22 bytes).
    Removing fsl_i2c_hal.o(i.I2C_HAL_MasterReceiveDataPolling), (262 bytes).
    Removing fsl_i2c_hal.o(i.I2C_HAL_MasterSendDataPolling), (162 bytes).
    Removing fsl_i2c_hal.o(i.I2C_HAL_ReadByte), (6 bytes).
    Removing fsl_i2c_hal.o(i.I2C_HAL_ReadByteBlocking), (34 bytes).
    Removing fsl_i2c_hal.o(i.I2C_HAL_SendAck), (14 bytes).
    Removing fsl_i2c_hal.o(i.I2C_HAL_SendNak), (14 bytes).
    Removing fsl_i2c_hal.o(i.I2C_HAL_SetDirMode), (12 bytes).
    Removing fsl_i2c_hal.o(i.I2C_HAL_SlaveReceiveDataPolling), (132 bytes).
    Removing fsl_i2c_hal.o(i.I2C_HAL_SlaveSendDataPolling), (160 bytes).
    Removing fsl_i2c_hal.o(i.I2C_HAL_WriteByteBlocking), (52 bytes).
    Removing fsl_lptmr_hal.o(.rev16_text), (4 bytes).
    Removing fsl_lptmr_hal.o(.revsh_text), (4 bytes).
    Removing fsl_lptmr_hal.o(.rrx_text), (6 bytes).
    Removing fsl_lptmr_hal.o(i.LPTMR_HAL_GetCounterValue), (16 bytes).
    Removing fsl_lptmr_hal.o(i.LPTMR_HAL_Init), (110 bytes).
    Removing fsl_lptmr_hal.o(i.LPTMR_HAL_SetPrescalerMode), (40 bytes).
    Removing fsl_lptmr_hal.o(i.LPTMR_HAL_SetTimerWorkingMode), (60 bytes).
    Removing fsl_mcg_hal.o(.rev16_text), (4 bytes).
    Removing fsl_mcg_hal.o(.revsh_text), (4 bytes).
    Removing fsl_mcg_hal.o(.rrx_text), (6 bytes).
    Removing fsl_mcg_hal.o(i.CLOCK_HAL_CalculatePllDiv), (204 bytes).
    Removing fsl_mcg_hal.o(i.CLOCK_HAL_EnableOsc0Monitor), (24 bytes).
    Removing fsl_mcg_hal.o(i.CLOCK_HAL_EnableRtcOscMonitor), (28 bytes).
    Removing fsl_mcg_hal.o(i.CLOCK_HAL_GetAvailableFrdiv), (120 bytes).
    Removing fsl_mcg_hal.o(i.CLOCK_HAL_GetFixedFreqClk), (34 bytes).
    Removing fsl_mcg_hal.o(i.CLOCK_HAL_TrimInternalRefClk), (252 bytes).
    Removing fsl_mcg_hal_modes.o(.rev16_text), (4 bytes).
    Removing fsl_mcg_hal_modes.o(.revsh_text), (4 bytes).
    Removing fsl_mcg_hal_modes.o(.rrx_text), (6 bytes).
    Removing fsl_mcg_hal_modes.o(i.CLOCK_HAL_SetBlpeMode), (72 bytes).
    Removing fsl_mcg_hal_modes.o(i.CLOCK_HAL_SetBlpiMode), (100 bytes).
    Removing fsl_mcg_hal_modes.o(i.CLOCK_HAL_SetFeeMode), (234 bytes).
    Removing fsl_mcg_hal_modes.o(i.CLOCK_HAL_SetFeiMode), (136 bytes).
    Removing fsl_mcg_hal_modes.o(i.CLOCK_HAL_SetPeeMode), (54 bytes).
    Removing fsl_osc_hal.o(.rev16_text), (4 bytes).
    Removing fsl_osc_hal.o(.revsh_text), (4 bytes).
    Removing fsl_osc_hal.o(.rrx_text), (6 bytes).
    Removing fsl_port_hal.o(.rev16_text), (4 bytes).
    Removing fsl_port_hal.o(.revsh_text), (4 bytes).
    Removing fsl_port_hal.o(.rrx_text), (6 bytes).
    Removing fsl_port_hal.o(i.PORT_HAL_SetHighGlobalPinCtrl), (14 bytes).
    Removing fsl_port_hal.o(i.PORT_HAL_SetLowGlobalPinCtrl), (14 bytes).
    Removing fsl_rtc_hal.o(.rev16_text), (4 bytes).
    Removing fsl_rtc_hal.o(.revsh_text), (4 bytes).
    Removing fsl_rtc_hal.o(.rrx_text), (6 bytes).
    Removing fsl_rtc_hal.o(i.RTC_HAL_ConvertDatetimeToSecs), (128 bytes).
    Removing fsl_rtc_hal.o(i.RTC_HAL_ConvertSecsToDatetime), (164 bytes).
    Removing fsl_rtc_hal.o(i.RTC_HAL_Disable), (30 bytes).
    Removing fsl_rtc_hal.o(i.RTC_HAL_Enable), (44 bytes).
    Removing fsl_rtc_hal.o(i.RTC_HAL_EnableCounter), (14 bytes).
    Removing fsl_rtc_hal.o(i.RTC_HAL_GetAlarm), (56 bytes).
    Removing fsl_rtc_hal.o(i.RTC_HAL_GetDatetime), (60 bytes).
    Removing fsl_rtc_hal.o(i.RTC_HAL_GetDatetimeInSecs), (44 bytes).
    Removing fsl_rtc_hal.o(i.RTC_HAL_Init), (128 bytes).
    Removing fsl_rtc_hal.o(i.RTC_HAL_IsDatetimeCorrectFormat), (120 bytes).
    Removing fsl_rtc_hal.o(i.RTC_HAL_IsOscillatorEnabled), (24 bytes).
    Removing fsl_rtc_hal.o(i.RTC_HAL_SetAlarm), (68 bytes).
    Removing fsl_rtc_hal.o(i.RTC_HAL_SetDatetime), (56 bytes).
    Removing fsl_rtc_hal.o(i.RTC_HAL_SetDatetimeInsecs), (32 bytes).
    Removing fsl_rtc_hal.o(i.RTC_HAL_SetOscillatorCmd), (14 bytes).
    Removing fsl_rtc_hal.o(i.RTC_HAL_SetSecsReg), (12 bytes).
    Removing fsl_rtc_hal.o(.constdata), (52 bytes).
    Removing fsl_rtc_hal.o(.conststring), (82 bytes).
    Removing fsl_sim_hal_mk64f12.o(.rev16_text), (4 bytes).
    Removing fsl_sim_hal_mk64f12.o(.revsh_text), (4 bytes).
    Removing fsl_sim_hal_mk64f12.o(.rrx_text), (6 bytes).
    Removing fsl_sim_hal_mk64f12.o(i.CLOCK_HAL_GetOutDiv), (52 bytes).
    Removing fsl_sim_hal_mk64f12.o(i.CLOCK_HAL_GetUsbfsDiv), (30 bytes).
    Removing fsl_sim_hal_mk64f12.o(i.CLOCK_HAL_SetUsbfsDiv), (32 bytes).
    Removing fsl_sim_hal_mk64f12.o(i.SIM_HAL_GetAdcAlternativeTriggerCmd), (132 bytes).
    Removing fsl_sim_hal_mk64f12.o(i.SIM_HAL_GetAdcPreTriggerMode), (112 bytes).
    Removing fsl_sim_hal_mk64f12.o(i.SIM_HAL_GetAdcTriggerMode), (104 bytes).
    Removing fsl_sim_hal_mk64f12.o(i.SIM_HAL_GetFtmChSrcMode), (128 bytes).
    Removing fsl_sim_hal_mk64f12.o(i.SIM_HAL_GetFtmExternalClkPinMode), (160 bytes).
    Removing fsl_sim_hal_mk64f12.o(i.SIM_HAL_GetFtmFaultSelMode), (220 bytes).
    Removing fsl_sim_hal_mk64f12.o(i.SIM_HAL_GetFtmTriggerSrcMode), (252 bytes).
    Removing fsl_sim_hal_mk64f12.o(i.SIM_HAL_GetUartRxSrcMode), (116 bytes).
    Removing fsl_sim_hal_mk64f12.o(i.SIM_HAL_GetUartTxSrcMode), (116 bytes).
    Removing fsl_sim_hal_mk64f12.o(i.SIM_HAL_SetAdcAlternativeTriggerCmd), (108 bytes).
    Removing fsl_sim_hal_mk64f12.o(i.SIM_HAL_SetAdcPreTriggerMode), (108 bytes).
    Removing fsl_sim_hal_mk64f12.o(i.SIM_HAL_SetAdcTriggerMode), (112 bytes).
    Removing fsl_sim_hal_mk64f12.o(i.SIM_HAL_SetAdcTriggerModeOneStep), (196 bytes).
    Removing fsl_sim_hal_mk64f12.o(i.SIM_HAL_SetFtmChSrcMode), (136 bytes).
    Removing fsl_sim_hal_mk64f12.o(i.SIM_HAL_SetFtmExternalClkPinMode), (148 bytes).
    Removing fsl_sim_hal_mk64f12.o(i.SIM_HAL_SetFtmFaultSelMode), (204 bytes).
    Removing fsl_sim_hal_mk64f12.o(i.SIM_HAL_SetFtmTriggerSrcMode), (240 bytes).
    Removing fsl_sim_hal_mk64f12.o(i.SIM_HAL_SetUartRxSrcMode), (124 bytes).
    Removing fsl_sim_hal_mk64f12.o(i.SIM_HAL_SetUartTxSrcMode), (124 bytes).
    Removing fsl_sim_hal_mk64f12.o(.conststring), (98 bytes).
    Removing fsl_uart_hal.o(.rev16_text), (4 bytes).
    Removing fsl_uart_hal.o(.revsh_text), (4 bytes).
    Removing fsl_uart_hal.o(.rrx_text), (6 bytes).
    Removing fsl_uart_hal.o(i.UART_HAL_ClearISO7816InterruptStatus), (18 bytes).
    Removing fsl_uart_hal.o(i.UART_HAL_ClearStatusFlag), (144 bytes).
    Removing fsl_uart_hal.o(i.UART_HAL_ConfigIdleLineDetect), (22 bytes).
    Removing fsl_uart_hal.o(i.UART_HAL_FlushRxFifo), (36 bytes).
    Removing fsl_uart_hal.o(i.UART_HAL_FlushTxFifo), (36 bytes).
    Removing fsl_uart_hal.o(i.UART_HAL_GetISO7816IntMode), (132 bytes).
    Removing fsl_uart_hal.o(i.UART_HAL_GetISO7816InterruptStatus), (22 bytes).
    Removing fsl_uart_hal.o(i.UART_HAL_GetIntMode), (78 bytes).
    Removing fsl_uart_hal.o(i.UART_HAL_GetStatusFlag), (78 bytes).
    Removing fsl_uart_hal.o(i.UART_HAL_Getchar9), (32 bytes).
    Removing fsl_uart_hal.o(i.UART_HAL_Init), (46 bytes).
    Removing fsl_uart_hal.o(i.UART_HAL_PutReceiverInStandbyMode), (50 bytes).
    Removing fsl_uart_hal.o(i.UART_HAL_Putchar9), (26 bytes).
    Removing fsl_uart_hal.o(i.UART_HAL_ResetISO7816BlockWaitTimer), (46 bytes).
    Removing fsl_uart_hal.o(i.UART_HAL_ResetISO7816CharacterWaitTimer), (46 bytes).
    Removing fsl_uart_hal.o(i.UART_HAL_ResetISO7816WaitTimer), (46 bytes).
    Removing fsl_uart_hal.o(i.UART_HAL_SetBaudRateDivisor), (100 bytes).
    Removing fsl_uart_hal.o(i.UART_HAL_SetISO7816Etu), (106 bytes).
    Removing fsl_uart_hal.o(i.UART_HAL_SetISO7816IntMode), (280 bytes).
    Removing fsl_uart_hal.o(i.UART_HAL_SetInfraredOperation), (22 bytes).
    Removing fsl_uart_hal.o(i.UART_HAL_SetIntMode), (106 bytes).
    Removing fsl_uart_hal.o(i.UART_HAL_SetMatchAddress), (34 bytes).
    Removing fsl_uart_hal.o(i.UART_HAL_SetRxDmaCmd), (24 bytes).
    Removing fsl_uart_hal.o(i.UART_HAL_SetRxFifoCmd), (48 bytes).
    Removing fsl_uart_hal.o(i.UART_HAL_SetRxFifoWatermark), (24 bytes).
    Removing fsl_uart_hal.o(i.UART_HAL_SetTxDmaCmd), (68 bytes).
    Removing fsl_uart_hal.o(i.UART_HAL_SetTxFifoCmd), (48 bytes).
    Removing fsl_uart_hal.o(i.UART_HAL_SetTxFifoWatermark), (24 bytes).
    Removing fsl_uart_hal.o(.conststring), (84 bytes).
    Removing fsl_os_abstraction_bm.o(.rev16_text), (4 bytes).
    Removing fsl_os_abstraction_bm.o(.revsh_text), (4 bytes).
    Removing fsl_os_abstraction_bm.o(.rrx_text), (6 bytes).
    Removing fsl_os_abstraction_bm.o(i.OSA_EnterCritical), (20 bytes).
    Removing fsl_os_abstraction_bm.o(i.OSA_EventClear), (52 bytes).
    Removing fsl_os_abstraction_bm.o(i.OSA_EventCreate), (48 bytes).
    Removing fsl_os_abstraction_bm.o(i.OSA_EventDestroy), (36 bytes).
    Removing fsl_os_abstraction_bm.o(i.OSA_EventGetFlags), (36 bytes).
    Removing fsl_os_abstraction_bm.o(i.OSA_EventSet), (52 bytes).
    Removing fsl_os_abstraction_bm.o(i.OSA_EventWait), (200 bytes).
    Removing fsl_os_abstraction_bm.o(i.OSA_ExitCritical), (20 bytes).
    Removing fsl_os_abstraction_bm.o(i.OSA_Init), (14 bytes).
    Removing fsl_os_abstraction_bm.o(i.OSA_InstallIntHandler), (16 bytes).
    Removing fsl_os_abstraction_bm.o(i.OSA_MemAlloc), (12 bytes).
    Removing fsl_os_abstraction_bm.o(i.OSA_MemAllocZero), (14 bytes).
    Removing fsl_os_abstraction_bm.o(i.OSA_MemFree), (14 bytes).
    Removing fsl_os_abstraction_bm.o(i.OSA_MsgQCreate), (72 bytes).
    Removing fsl_os_abstraction_bm.o(i.OSA_MsgQDestroy), (44 bytes).
    Removing fsl_os_abstraction_bm.o(i.OSA_MsgQGet), (160 bytes).
    Removing fsl_os_abstraction_bm.o(i.OSA_MsgQPut), (144 bytes).
    Removing fsl_os_abstraction_bm.o(i.OSA_MutexCreate), (44 bytes).
    Removing fsl_os_abstraction_bm.o(i.OSA_MutexDestroy), (36 bytes).
    Removing fsl_os_abstraction_bm.o(i.OSA_MutexLock), (132 bytes).
    Removing fsl_os_abstraction_bm.o(i.OSA_MutexUnlock), (48 bytes).
    Removing fsl_os_abstraction_bm.o(i.OSA_PollAllOtherTasks), (72 bytes).
    Removing fsl_os_abstraction_bm.o(i.OSA_SemaCreate), (44 bytes).
    Removing fsl_os_abstraction_bm.o(i.OSA_SemaDestroy), (36 bytes).
    Removing fsl_os_abstraction_bm.o(i.OSA_SemaPost), (60 bytes).
    Removing fsl_os_abstraction_bm.o(i.OSA_SemaWait), (132 bytes).
    Removing fsl_os_abstraction_bm.o(i.OSA_Start), (52 bytes).
    Removing fsl_os_abstraction_bm.o(i.OSA_TaskCreate), (76 bytes).
    Removing fsl_os_abstraction_bm.o(i.OSA_TaskDestroy), (84 bytes).
    Removing fsl_os_abstraction_bm.o(i.OSA_TaskGetHandler), (12 bytes).
    Removing fsl_os_abstraction_bm.o(i.OSA_TaskGetPriority), (6 bytes).
    Removing fsl_os_abstraction_bm.o(i.OSA_TaskSetPriority), (6 bytes).
    Removing fsl_os_abstraction_bm.o(i.OSA_TaskYield), (4 bytes).
    Removing fsl_os_abstraction_bm.o(i.OSA_TimeDelay), (32 bytes).
    Removing fsl_os_abstraction_bm.o(i.OSA_TimeDiff), (22 bytes).
    Removing fsl_os_abstraction_bm.o(i.OSA_TimeGetMsec), (16 bytes).
    Removing fsl_os_abstraction_bm.o(i.OSA_TimeInit), (132 bytes).
    Removing fsl_os_abstraction_bm.o(i.task_init), (64 bytes).
    Removing fsl_os_abstraction_bm.o(.bss), (96 bytes).
    Removing fsl_os_abstraction_bm.o(.conststring), (88 bytes).
    Removing fsl_os_abstraction_bm.o(.data), (8 bytes).
    Removing fsl_clock_mk64f12.o(.rev16_text), (4 bytes).
    Removing fsl_clock_mk64f12.o(.revsh_text), (4 bytes).
    Removing fsl_clock_mk64f12.o(.rrx_text), (6 bytes).
    Removing fsl_clock_mk64f12.o(i.CLOCK_SYS_DisableAdcClock), (104 bytes).
    Removing fsl_clock_mk64f12.o(i.CLOCK_SYS_DisableDacClock), (104 bytes).
    Removing fsl_clock_mk64f12.o(i.CLOCK_SYS_DisableFtmClock), (104 bytes).
    Removing fsl_clock_mk64f12.o(i.CLOCK_SYS_DisableI2cClock), (104 bytes).
    Removing fsl_clock_mk64f12.o(i.CLOCK_SYS_DisablePortClock), (108 bytes).
    Removing fsl_clock_mk64f12.o(i.CLOCK_SYS_DisableSpiClock), (104 bytes).
    Removing fsl_clock_mk64f12.o(i.CLOCK_SYS_DisableUartClock), (108 bytes).
    Removing fsl_clock_mk64f12.o(i.CLOCK_SYS_EnableAdcClock), (104 bytes).
    Removing fsl_clock_mk64f12.o(i.CLOCK_SYS_EnableDacClock), (104 bytes).
    Removing fsl_clock_mk64f12.o(i.CLOCK_SYS_EnableFtmClock), (104 bytes).
    Removing fsl_clock_mk64f12.o(i.CLOCK_SYS_EnableI2cClock), (104 bytes).
    Removing fsl_clock_mk64f12.o(i.CLOCK_SYS_EnableSpiClock), (104 bytes).
    Removing fsl_clock_mk64f12.o(i.CLOCK_SYS_GetAdcGateCmd), (104 bytes).
    Removing fsl_clock_mk64f12.o(i.CLOCK_SYS_GetDacGateCmd), (104 bytes).
    Removing fsl_clock_mk64f12.o(i.CLOCK_SYS_GetEnetRmiiFreq), (44 bytes).
    Removing fsl_clock_mk64f12.o(i.CLOCK_SYS_GetEnetTimeStampFreq), (72 bytes).
    Removing fsl_clock_mk64f12.o(i.CLOCK_SYS_GetExternalRefClock32kFreq), (84 bytes).
    Removing fsl_clock_mk64f12.o(i.CLOCK_SYS_GetFlashClockFreq), (36 bytes).
    Removing fsl_clock_mk64f12.o(i.CLOCK_SYS_GetFlexbusFreq), (36 bytes).
    Removing fsl_clock_mk64f12.o(i.CLOCK_SYS_GetFlexcanFreq), (20 bytes).
    Removing fsl_clock_mk64f12.o(i.CLOCK_SYS_GetFreq), (204 bytes).
    Removing fsl_clock_mk64f12.o(i.CLOCK_SYS_GetFtmExternalFreq), (36 bytes).
    Removing fsl_clock_mk64f12.o(i.CLOCK_SYS_GetFtmGateCmd), (104 bytes).
    Removing fsl_clock_mk64f12.o(i.CLOCK_SYS_GetI2cGateCmd), (104 bytes).
    Removing fsl_clock_mk64f12.o(i.CLOCK_SYS_GetLptmrFreq), (72 bytes).
    Removing fsl_clock_mk64f12.o(i.CLOCK_SYS_GetOsc0ExternalRefClockFreq), (40 bytes).
    Removing fsl_clock_mk64f12.o(i.CLOCK_SYS_GetPllFllClockFreq), (72 bytes).
    Removing fsl_clock_mk64f12.o(i.CLOCK_SYS_GetPortFilterFreq), (24 bytes).
    Removing fsl_clock_mk64f12.o(i.CLOCK_SYS_GetPortGateCmd), (108 bytes).
    Removing fsl_clock_mk64f12.o(i.CLOCK_SYS_GetRtcOutFreq), (48 bytes).
    Removing fsl_clock_mk64f12.o(i.CLOCK_SYS_GetSaiFreq), (56 bytes).
    Removing fsl_clock_mk64f12.o(i.CLOCK_SYS_GetSdhcFreq), (72 bytes).
    Removing fsl_clock_mk64f12.o(i.CLOCK_SYS_GetSpiGateCmd), (104 bytes).
    Removing fsl_clock_mk64f12.o(i.CLOCK_SYS_GetTraceFreq), (52 bytes).
    Removing fsl_clock_mk64f12.o(i.CLOCK_SYS_GetUartGateCmd), (108 bytes).
    Removing fsl_clock_mk64f12.o(i.CLOCK_SYS_GetUsbfsFreq), (76 bytes).
    Removing fsl_clock_mk64f12.o(i.CLOCK_SYS_GetWdogFreq), (22 bytes).
    Removing fsl_clock_mk64f12.o(i.SIM_HAL_DisableClock), (32 bytes).
    Removing fsl_clock_mk64f12.o(i.SIM_HAL_GetGateCmd), (40 bytes).
    Removing fsl_clock_mk64f12.o(.data), (20 bytes).
    Removing fsl_clock_manager.o(.rev16_text), (4 bytes).
    Removing fsl_clock_manager.o(.revsh_text), (4 bytes).
    Removing fsl_clock_manager.o(.rrx_text), (6 bytes).
    Removing fsl_clock_manager.o(i.CLOCK_SYS_GetCurrentConfiguration), (12 bytes).
    Removing fsl_clock_manager.o(i.CLOCK_SYS_GetErrorCallback), (36 bytes).
    Removing fsl_clock_manager.o(i.CLOCK_SYS_Init), (120 bytes).
    Removing fsl_clock_manager.o(i.CLOCK_SYS_OscDeinit), (112 bytes).
    Removing fsl_clock_manager.o(i.CLOCK_SYS_RtcOscDeinit), (76 bytes).
    Removing fsl_clock_manager.o(i.CLOCK_SYS_UpdateConfiguration), (264 bytes).
    Removing fsl_clock_manager.o(.bss), (16 bytes).
    Removing fsl_clock_manager_common.o(.rev16_text), (4 bytes).
    Removing fsl_clock_manager_common.o(.revsh_text), (4 bytes).
    Removing fsl_clock_manager_common.o(.rrx_text), (6 bytes).
    Removing fsl_interrupt_manager.o(.rev16_text), (4 bytes).
    Removing fsl_interrupt_manager.o(.revsh_text), (4 bytes).
    Removing fsl_interrupt_manager.o(.rrx_text), (6 bytes).
    Removing fsl_interrupt_manager.o(i.INT_SYS_DisableIRQGlobal), (20 bytes).
    Removing fsl_interrupt_manager.o(i.INT_SYS_EnableIRQGlobal), (36 bytes).
    Removing fsl_interrupt_manager.o(i.INT_SYS_InstallHandler), (192 bytes).
    Removing fsl_interrupt_manager.o(.conststring), (101 bytes).
    Removing fsl_interrupt_manager.o(.data), (4 bytes).
    Removing fsl_debug_console.o(.rev16_text), (4 bytes).
    Removing fsl_debug_console.o(.revsh_text), (4 bytes).
    Removing fsl_debug_console.o(.rrx_text), (6 bytes).
    Removing fsl_debug_console.o(i.DbgConsole_DeInit), (52 bytes).
    Removing fsl_debug_console.o(i.debug_getchar), (36 bytes).
    Removing fsl_debug_console.o(i.debug_putchar), (32 bytes).
    Removing fsl_debug_console.o(i.debug_scanf), (108 bytes).
    Removing fsl_debug_console.o(i.fgetc), (40 bytes).
    Removing fsl_debug_console.o(i.fputc), (36 bytes).
    Removing fsl_debug_console.o(.data), (8 bytes).
    Removing print_scan.o(i._sputc), (14 bytes).
    Removing print_scan.o(i.scan_ignore_white_space), (50 bytes).
    Removing print_scan.o(i.scan_prv), (1300 bytes).
    Removing hardware_init.o(.rev16_text), (4 bytes).
    Removing hardware_init.o(.revsh_text), (4 bytes).
    Removing hardware_init.o(.rrx_text), (6 bytes).
    Removing system_mk64f12.o(.rev16_text), (4 bytes).
    Removing system_mk64f12.o(.revsh_text), (4 bytes).
    Removing system_mk64f12.o(.rrx_text), (6 bytes).

426 unused section(s) (total 27904 bytes) removed from the image.

==============================================================================

Image Symbol Table

    Local Symbols

    Symbol Name                              Value     Ov Type        Size  Object(Section)

    RESET                                    0x00000000   Section     1024  startup_mk64f12.o(RESET)
    ../clib/angel/boardlib.s                 0x00000000   Number         0  boardshut.o ABSOLUTE
    ../clib/angel/boardlib.s                 0x00000000   Number         0  boardinit3.o ABSOLUTE
    ../clib/angel/boardlib.s                 0x00000000   Number         0  boardinit2.o ABSOLUTE
    ../clib/angel/boardlib.s                 0x00000000   Number         0  boardinit1.o ABSOLUTE
    ../clib/angel/handlers.s                 0x00000000   Number         0  __scatter_zi.o ABSOLUTE
    ../clib/angel/handlers.s                 0x00000000   Number         0  __scatter_copy.o ABSOLUTE
    ../clib/angel/kernel.s                   0x00000000   Number         0  __rtentry4.o ABSOLUTE
    ../clib/angel/kernel.s                   0x00000000   Number         0  __rtentry.o ABSOLUTE
    ../clib/angel/kernel.s                   0x00000000   Number         0  __rtentry2.o ABSOLUTE
    ../clib/angel/kernel.s                   0x00000000   Number         0  rtexit2.o ABSOLUTE
    ../clib/angel/kernel.s                   0x00000000   Number         0  rtexit.o ABSOLUTE
    ../clib/angel/kernel.s                   0x00000000   Number         0  __rtentry7.o ABSOLUTE
    ../clib/angel/rt.s                       0x00000000   Number         0  rt_div0.o ABSOLUTE
    ../clib/angel/rt.s                       0x00000000   Number         0  aeabi_ldiv0.o ABSOLUTE
    ../clib/angel/rt.s                       0x00000000   Number         0  rt_raise.o ABSOLUTE
    ../clib/angel/rt.s                       0x00000000   Number         0  aeabi_ldiv0_sigfpe.o ABSOLUTE
    ../clib/angel/rt.s                       0x00000000   Number         0  rt_heap_descriptor_intlibspace.o ABSOLUTE
    ../clib/angel/rt.s                       0x00000000   Number         0  rt_heap_descriptor.o ABSOLUTE
    ../clib/angel/scatter.s                  0x00000000   Number         0  __scatter.o ABSOLUTE
    ../clib/angel/startup.s                  0x00000000   Number         0  __main.o ABSOLUTE
    ../clib/angel/sys.s                      0x00000000   Number         0  sys_stackheap.o ABSOLUTE
    ../clib/angel/sys.s                      0x00000000   Number         0  indicate_semi.o ABSOLUTE
    ../clib/angel/sys.s                      0x00000000   Number         0  sys_stackheap_outer.o ABSOLUTE
    ../clib/angel/sys.s                      0x00000000   Number         0  mutex_dummy.o ABSOLUTE
    ../clib/angel/sys.s                      0x00000000   Number         0  libspace.o ABSOLUTE
    ../clib/angel/sys.s                      0x00000000   Number         0  use_no_semi.o ABSOLUTE
    ../clib/angel/sysapp.c                   0x00000000   Number         0  sys_command.o ABSOLUTE
    ../clib/angel/sysapp.c                   0x00000000   Number         0  sys_exit.o ABSOLUTE
    ../clib/angel/sysapp.c                   0x00000000   Number         0  sys_wrch.o ABSOLUTE
    ../clib/armsys.c                         0x00000000   Number         0  argv_veneer.o ABSOLUTE
    ../clib/armsys.c                         0x00000000   Number         0  argv_veneer.o ABSOLUTE
    ../clib/armsys.c                         0x00000000   Number         0  no_argv.o ABSOLUTE
    ../clib/armsys.c                         0x00000000   Number         0  _get_argv_nomalloc.o ABSOLUTE
    ../clib/armsys.c                         0x00000000   Number         0  _get_argv.o ABSOLUTE
    ../clib/assert.c                         0x00000000   Number         0  assert.o ABSOLUTE
    ../clib/assert.c                         0x00000000   Number         0  assert_puts.o ABSOLUTE
    ../clib/heap1.c                          0x00000000   Number         0  h1_extend.o ABSOLUTE
    ../clib/heap1.c                          0x00000000   Number         0  h1_extend_mt.o ABSOLUTE
    ../clib/heap1.c                          0x00000000   Number         0  h1_init_mt.o ABSOLUTE
    ../clib/heap1.c                          0x00000000   Number         0  h1_free_mt.o ABSOLUTE
    ../clib/heap1.c                          0x00000000   Number         0  h1_init.o ABSOLUTE
    ../clib/heap1.c                          0x00000000   Number         0  h1_final_mt.o ABSOLUTE
    ../clib/heap1.c                          0x00000000   Number         0  h1_free.o ABSOLUTE
    ../clib/heap1.c                          0x00000000   Number         0  h1_alloc.o ABSOLUTE
    ../clib/heap1.c                          0x00000000   Number         0  h1_alloc_mt.o ABSOLUTE
    ../clib/heap1.c                          0x00000000   Number         0  h1_final.o ABSOLUTE
    ../clib/heap2.c                          0x00000000   Number         0  heap2.o ABSOLUTE
    ../clib/heap2.c                          0x00000000   Number         0  heap2mt.o ABSOLUTE
    ../clib/heap2.c                          0x00000000   Number         0  fdtree.o ABSOLUTE
    ../clib/heapalloc.c                      0x00000000   Number         0  term_alloc.o ABSOLUTE
    ../clib/heapalloc.c                      0x00000000   Number         0  maybetermalloc2.o ABSOLUTE
    ../clib/heapalloc.c                      0x00000000   Number         0  calloc.o ABSOLUTE
    ../clib/heapalloc.c                      0x00000000   Number         0  hguard.o ABSOLUTE
    ../clib/heapalloc.c                      0x00000000   Number         0  heapstubs.o ABSOLUTE
    ../clib/heapalloc.c                      0x00000000   Number         0  init_alloc.o ABSOLUTE
    ../clib/heapalloc.c                      0x00000000   Number         0  free.o ABSOLUTE
    ../clib/heapalloc.c                      0x00000000   Number         0  malloc.o ABSOLUTE
    ../clib/heapalloc.c                      0x00000000   Number         0  hrguard.o ABSOLUTE
    ../clib/heapalloc.c                      0x00000000   Number         0  maybetermalloc1.o ABSOLUTE
    ../clib/heapalloc.c                      0x00000000   Number         0  maybetermalloc1.o ABSOLUTE
    ../clib/heapalloc.c                      0x00000000   Number         0  maybetermalloc2.o ABSOLUTE
    ../clib/heapaux.c                        0x00000000   Number         0  heapauxi.o ABSOLUTE
    ../clib/heapaux.c                        0x00000000   Number         0  heapauxa.o ABSOLUTE
    ../clib/libinit.s                        0x00000000   Number         0  libinit.o ABSOLUTE
    ../clib/libinit.s                        0x00000000   Number         0  libinit2.o ABSOLUTE
    ../clib/libinit.s                        0x00000000   Number         0  libshutdown.o ABSOLUTE
    ../clib/libinit.s                        0x00000000   Number         0  libshutdown2.o ABSOLUTE
    ../clib/libinit.s                        0x00000000   Number         0  libinit5.o ABSOLUTE
    ../clib/longlong.s                       0x00000000   Number         0  lludivv7m.o ABSOLUTE
    ../clib/memcpset.s                       0x00000000   Number         0  rt_memcpy_w.o ABSOLUTE
    ../clib/memcpset.s                       0x00000000   Number         0  rt_memclr.o ABSOLUTE
    ../clib/memcpset.s                       0x00000000   Number         0  rt_memclr_w.o ABSOLUTE
    ../clib/signal.c                         0x00000000   Number         0  defsig_rtmem_formal.o ABSOLUTE
    ../clib/signal.c                         0x00000000   Number         0  defsig_other.o ABSOLUTE
    ../clib/signal.c                         0x00000000   Number         0  defsig_segv_inner.o ABSOLUTE
    ../clib/signal.c                         0x00000000   Number         0  __raise.o ABSOLUTE
    ../clib/signal.c                         0x00000000   Number         0  defsig_cppl_inner.o ABSOLUTE
    ../clib/signal.c                         0x00000000   Number         0  defsig_stak_inner.o ABSOLUTE
    ../clib/signal.c                         0x00000000   Number         0  defsig_pvfn_inner.o ABSOLUTE
    ../clib/signal.c                         0x00000000   Number         0  defsig_abrt_outer.o ABSOLUTE
    ../clib/signal.c                         0x00000000   Number         0  defsig_rtmem_outer.o ABSOLUTE
    ../clib/signal.c                         0x00000000   Number         0  defsig_abrt_formal.o ABSOLUTE
    ../clib/signal.c                         0x00000000   Number         0  defsig_exit.o ABSOLUTE
    ../clib/signal.c                         0x00000000   Number         0  defsig_abrt_inner.o ABSOLUTE
    ../clib/signal.c                         0x00000000   Number         0  defsig_rtred_inner.o ABSOLUTE
    ../clib/signal.c                         0x00000000   Number         0  defsig_fpe_outer.o ABSOLUTE
    ../clib/signal.c                         0x00000000   Number         0  defsig_fpe_formal.o ABSOLUTE
    ../clib/signal.c                         0x00000000   Number         0  defsig_rtmem_inner.o ABSOLUTE
    ../clib/signal.c                         0x00000000   Number         0  defsig_general.o ABSOLUTE
    ../clib/signal.c                         0x00000000   Number         0  defsig_fpe_inner.o ABSOLUTE
    ../clib/signal.s                         0x00000000   Number         0  defsig.o ABSOLUTE
    ../clib/stdlib.c                         0x00000000   Number         0  rand.o ABSOLUTE
    ../clib/stdlib.c                         0x00000000   Number         0  exit.o ABSOLUTE
    ../clib/stdlib.c                         0x00000000   Number         0  rand.o ABSOLUTE
    ../clib/stdlib.c                         0x00000000   Number         0  abort.o ABSOLUTE
    ../clib/string.c                         0x00000000   Number         0  strlen.o ABSOLUTE
    ../fplib/fpinit.s                        0x00000000   Number         0  fpinit.o ABSOLUTE
    C:\Keil_v5\ARM\PACK\Keil\Kinetis_SDK_DFP\2.2.0\addon_cmsis\Driver\MK64F\I2C_MK64F.c 0x00000000   Number         0  i2c_mk64f.o ABSOLUTE
    C:\Keil_v5\ARM\PACK\Keil\Kinetis_SDK_DFP\2.2.0\addon_mdk\Boards\Freescale\FRDM-K64F\Common\FXOS8700.c 0x00000000   Number         0  fxos8700.o ABSOLUTE
    C:\Keil_v5\ARM\PACK\Keil\Kinetis_SDK_DFP\2.2.0\examples\frdmk64f\board.c 0x00000000   Number         0  board.o ABSOLUTE
    C:\Keil_v5\ARM\PACK\Keil\Kinetis_SDK_DFP\2.2.0\examples\frdmk64f\gpio_pins.c 0x00000000   Number         0  gpio_pins.o ABSOLUTE
    C:\Keil_v5\ARM\PACK\Keil\Kinetis_SDK_DFP\2.2.0\examples\frdmk64f\pin_mux.c 0x00000000   Number         0  pin_mux.o ABSOLUTE
    C:\Keil_v5\ARM\PACK\Keil\Kinetis_SDK_DFP\2.2.0\platform\devices\startup.c 0x00000000   Number         0  startup.o ABSOLUTE
    C:\Keil_v5\ARM\PACK\Keil\Kinetis_SDK_DFP\2.2.0\platform\drivers\src\edma\fsl_edma_common.c 0x00000000   Number         0  fsl_edma_common.o ABSOLUTE
    C:\Keil_v5\ARM\PACK\Keil\Kinetis_SDK_DFP\2.2.0\platform\drivers\src\edma\fsl_edma_driver.c 0x00000000   Number         0  fsl_edma_driver.o ABSOLUTE
    C:\Keil_v5\ARM\PACK\Keil\Kinetis_SDK_DFP\2.2.0\platform\drivers\src\edma\fsl_edma_irq.c 0x00000000   Number         0  fsl_edma_irq.o ABSOLUTE
    C:\Keil_v5\ARM\PACK\Keil\Kinetis_SDK_DFP\2.2.0\platform\drivers\src\gpio\fsl_gpio_common.c 0x00000000   Number         0  fsl_gpio_common.o ABSOLUTE
    C:\Keil_v5\ARM\PACK\Keil\Kinetis_SDK_DFP\2.2.0\platform\drivers\src\gpio\fsl_gpio_driver.c 0x00000000   Number         0  fsl_gpio_driver.o ABSOLUTE
    C:\Keil_v5\ARM\PACK\Keil\Kinetis_SDK_DFP\2.2.0\platform\drivers\src\rtc\fsl_rtc_common.c 0x00000000   Number         0  fsl_rtc_common.o ABSOLUTE
    C:\Keil_v5\ARM\PACK\Keil\Kinetis_SDK_DFP\2.2.0\platform\drivers\src\rtc\fsl_rtc_driver.c 0x00000000   Number         0  fsl_rtc_driver.o ABSOLUTE
    C:\Keil_v5\ARM\PACK\Keil\Kinetis_SDK_DFP\2.2.0\platform\hal\src\dmamux\fsl_dmamux_hal.c 0x00000000   Number         0  fsl_dmamux_hal.o ABSOLUTE
    C:\Keil_v5\ARM\PACK\Keil\Kinetis_SDK_DFP\2.2.0\platform\hal\src\dspi\fsl_dspi_hal.c 0x00000000   Number         0  fsl_dspi_hal.o ABSOLUTE
    C:\Keil_v5\ARM\PACK\Keil\Kinetis_SDK_DFP\2.2.0\platform\hal\src\edma\fsl_edma_hal.c 0x00000000   Number         0  fsl_edma_hal.o ABSOLUTE
    C:\Keil_v5\ARM\PACK\Keil\Kinetis_SDK_DFP\2.2.0\platform\hal\src\gpio\fsl_gpio_hal.c 0x00000000   Number         0  fsl_gpio_hal.o ABSOLUTE
    C:\Keil_v5\ARM\PACK\Keil\Kinetis_SDK_DFP\2.2.0\platform\hal\src\i2c\fsl_i2c_hal.c 0x00000000   Number         0  fsl_i2c_hal.o ABSOLUTE
    C:\Keil_v5\ARM\PACK\Keil\Kinetis_SDK_DFP\2.2.0\platform\hal\src\lptmr\fsl_lptmr_hal.c 0x00000000   Number         0  fsl_lptmr_hal.o ABSOLUTE
    C:\Keil_v5\ARM\PACK\Keil\Kinetis_SDK_DFP\2.2.0\platform\hal\src\mcg\fsl_mcg_hal.c 0x00000000   Number         0  fsl_mcg_hal.o ABSOLUTE
    C:\Keil_v5\ARM\PACK\Keil\Kinetis_SDK_DFP\2.2.0\platform\hal\src\mcg\fsl_mcg_hal_modes.c 0x00000000   Number         0  fsl_mcg_hal_modes.o ABSOLUTE
    C:\Keil_v5\ARM\PACK\Keil\Kinetis_SDK_DFP\2.2.0\platform\hal\src\osc\fsl_osc_hal.c 0x00000000   Number         0  fsl_osc_hal.o ABSOLUTE
    C:\Keil_v5\ARM\PACK\Keil\Kinetis_SDK_DFP\2.2.0\platform\hal\src\port\fsl_port_hal.c 0x00000000   Number         0  fsl_port_hal.o ABSOLUTE
    C:\Keil_v5\ARM\PACK\Keil\Kinetis_SDK_DFP\2.2.0\platform\hal\src\rtc\fsl_rtc_hal.c 0x00000000   Number         0  fsl_rtc_hal.o ABSOLUTE
    C:\Keil_v5\ARM\PACK\Keil\Kinetis_SDK_DFP\2.2.0\platform\hal\src\sim\MK64F12\fsl_sim_hal_MK64F12.c 0x00000000   Number         0  fsl_sim_hal_mk64f12.o ABSOLUTE
    C:\Keil_v5\ARM\PACK\Keil\Kinetis_SDK_DFP\2.2.0\platform\hal\src\uart\fsl_uart_hal.c 0x00000000   Number         0  fsl_uart_hal.o ABSOLUTE
    C:\Keil_v5\ARM\PACK\Keil\Kinetis_SDK_DFP\2.2.0\platform\osa\src\fsl_os_abstraction_bm.c 0x00000000   Number         0  fsl_os_abstraction_bm.o ABSOLUTE
    C:\Keil_v5\ARM\PACK\Keil\Kinetis_SDK_DFP\2.2.0\platform\system\src\clock\MK64F12\fsl_clock_MK64F12.c 0x00000000   Number         0  fsl_clock_mk64f12.o ABSOLUTE
    C:\Keil_v5\ARM\PACK\Keil\Kinetis_SDK_DFP\2.2.0\platform\system\src\clock\fsl_clock_manager.c 0x00000000   Number         0  fsl_clock_manager.o ABSOLUTE
    C:\Keil_v5\ARM\PACK\Keil\Kinetis_SDK_DFP\2.2.0\platform\system\src\clock\fsl_clock_manager_common.c 0x00000000   Number         0  fsl_clock_manager_common.o ABSOLUTE
    C:\Keil_v5\ARM\PACK\Keil\Kinetis_SDK_DFP\2.2.0\platform\system\src\interrupt\fsl_interrupt_manager.c 0x00000000   Number         0  fsl_interrupt_manager.o ABSOLUTE
    C:\Keil_v5\ARM\PACK\Keil\Kinetis_SDK_DFP\2.2.0\platform\utilities\src\fsl_debug_console.c 0x00000000   Number         0  fsl_debug_console.o ABSOLUTE
    C:\Keil_v5\ARM\PACK\Keil\Kinetis_SDK_DFP\2.2.0\platform\utilities\src\print_scan.c 0x00000000   Number         0  print_scan.o ABSOLUTE
    C:\\Keil_v5\\ARM\\PACK\\Keil\\Kinetis_SDK_DFP\\2.2.0\\addon_cmsis\\Driver\\MK64F\\I2C_MK64F.c 0x00000000   Number         0  i2c_mk64f.o ABSOLUTE
    C:\\Keil_v5\\ARM\\PACK\\Keil\\Kinetis_SDK_DFP\\2.2.0\\examples\\frdmk64f\\board.c 0x00000000   Number         0  board.o ABSOLUTE
    C:\\Keil_v5\\ARM\\PACK\\Keil\\Kinetis_SDK_DFP\\2.2.0\\examples\\frdmk64f\\gpio_pins.c 0x00000000   Number         0  gpio_pins.o ABSOLUTE
    C:\\Keil_v5\\ARM\\PACK\\Keil\\Kinetis_SDK_DFP\\2.2.0\\examples\\frdmk64f\\pin_mux.c 0x00000000   Number         0  pin_mux.o ABSOLUTE
    C:\\Keil_v5\\ARM\\PACK\\Keil\\Kinetis_SDK_DFP\\2.2.0\\platform\\devices\\startup.c 0x00000000   Number         0  startup.o ABSOLUTE
    C:\\Keil_v5\\ARM\\PACK\\Keil\\Kinetis_SDK_DFP\\2.2.0\\platform\\drivers\\src\\edma\\fsl_edma_common.c 0x00000000   Number         0  fsl_edma_common.o ABSOLUTE
    C:\\Keil_v5\\ARM\\PACK\\Keil\\Kinetis_SDK_DFP\\2.2.0\\platform\\drivers\\src\\edma\\fsl_edma_driver.c 0x00000000   Number         0  fsl_edma_driver.o ABSOLUTE
    C:\\Keil_v5\\ARM\\PACK\\Keil\\Kinetis_SDK_DFP\\2.2.0\\platform\\drivers\\src\\edma\\fsl_edma_irq.c 0x00000000   Number         0  fsl_edma_irq.o ABSOLUTE
    C:\\Keil_v5\\ARM\\PACK\\Keil\\Kinetis_SDK_DFP\\2.2.0\\platform\\drivers\\src\\gpio\\fsl_gpio_common.c 0x00000000   Number         0  fsl_gpio_common.o ABSOLUTE
    C:\\Keil_v5\\ARM\\PACK\\Keil\\Kinetis_SDK_DFP\\2.2.0\\platform\\drivers\\src\\gpio\\fsl_gpio_driver.c 0x00000000   Number         0  fsl_gpio_driver.o ABSOLUTE
    C:\\Keil_v5\\ARM\\PACK\\Keil\\Kinetis_SDK_DFP\\2.2.0\\platform\\drivers\\src\\rtc\\fsl_rtc_common.c 0x00000000   Number         0  fsl_rtc_common.o ABSOLUTE
    C:\\Keil_v5\\ARM\\PACK\\Keil\\Kinetis_SDK_DFP\\2.2.0\\platform\\drivers\\src\\rtc\\fsl_rtc_driver.c 0x00000000   Number         0  fsl_rtc_driver.o ABSOLUTE
    C:\\Keil_v5\\ARM\\PACK\\Keil\\Kinetis_SDK_DFP\\2.2.0\\platform\\hal\\src\\dmamux\\fsl_dmamux_hal.c 0x00000000   Number         0  fsl_dmamux_hal.o ABSOLUTE
    C:\\Keil_v5\\ARM\\PACK\\Keil\\Kinetis_SDK_DFP\\2.2.0\\platform\\hal\\src\\dspi\\fsl_dspi_hal.c 0x00000000   Number         0  fsl_dspi_hal.o ABSOLUTE
    C:\\Keil_v5\\ARM\\PACK\\Keil\\Kinetis_SDK_DFP\\2.2.0\\platform\\hal\\src\\edma\\fsl_edma_hal.c 0x00000000   Number         0  fsl_edma_hal.o ABSOLUTE
    C:\\Keil_v5\\ARM\\PACK\\Keil\\Kinetis_SDK_DFP\\2.2.0\\platform\\hal\\src\\gpio\\fsl_gpio_hal.c 0x00000000   Number         0  fsl_gpio_hal.o ABSOLUTE
    C:\\Keil_v5\\ARM\\PACK\\Keil\\Kinetis_SDK_DFP\\2.2.0\\platform\\hal\\src\\i2c\\fsl_i2c_hal.c 0x00000000   Number         0  fsl_i2c_hal.o ABSOLUTE
    C:\\Keil_v5\\ARM\\PACK\\Keil\\Kinetis_SDK_DFP\\2.2.0\\platform\\hal\\src\\lptmr\\fsl_lptmr_hal.c 0x00000000   Number         0  fsl_lptmr_hal.o ABSOLUTE
    C:\\Keil_v5\\ARM\\PACK\\Keil\\Kinetis_SDK_DFP\\2.2.0\\platform\\hal\\src\\mcg\\fsl_mcg_hal.c 0x00000000   Number         0  fsl_mcg_hal.o ABSOLUTE
    C:\\Keil_v5\\ARM\\PACK\\Keil\\Kinetis_SDK_DFP\\2.2.0\\platform\\hal\\src\\mcg\\fsl_mcg_hal_modes.c 0x00000000   Number         0  fsl_mcg_hal_modes.o ABSOLUTE
    C:\\Keil_v5\\ARM\\PACK\\Keil\\Kinetis_SDK_DFP\\2.2.0\\platform\\hal\\src\\osc\\fsl_osc_hal.c 0x00000000   Number         0  fsl_osc_hal.o ABSOLUTE
    C:\\Keil_v5\\ARM\\PACK\\Keil\\Kinetis_SDK_DFP\\2.2.0\\platform\\hal\\src\\port\\fsl_port_hal.c 0x00000000   Number         0  fsl_port_hal.o ABSOLUTE
    C:\\Keil_v5\\ARM\\PACK\\Keil\\Kinetis_SDK_DFP\\2.2.0\\platform\\hal\\src\\rtc\\fsl_rtc_hal.c 0x00000000   Number         0  fsl_rtc_hal.o ABSOLUTE
    C:\\Keil_v5\\ARM\\PACK\\Keil\\Kinetis_SDK_DFP\\2.2.0\\platform\\hal\\src\\sim\\MK64F12\\fsl_sim_hal_MK64F12.c 0x00000000   Number         0  fsl_sim_hal_mk64f12.o ABSOLUTE
    C:\\Keil_v5\\ARM\\PACK\\Keil\\Kinetis_SDK_DFP\\2.2.0\\platform\\hal\\src\\uart\\fsl_uart_hal.c 0x00000000   Number         0  fsl_uart_hal.o ABSOLUTE
    C:\\Keil_v5\\ARM\\PACK\\Keil\\Kinetis_SDK_DFP\\2.2.0\\platform\\osa\\src\\fsl_os_abstraction_bm.c 0x00000000   Number         0  fsl_os_abstraction_bm.o ABSOLUTE
    C:\\Keil_v5\\ARM\\PACK\\Keil\\Kinetis_SDK_DFP\\2.2.0\\platform\\system\\src\\clock\\MK64F12\\fsl_clock_MK64F12.c 0x00000000   Number         0  fsl_clock_mk64f12.o ABSOLUTE
    C:\\Keil_v5\\ARM\\PACK\\Keil\\Kinetis_SDK_DFP\\2.2.0\\platform\\system\\src\\clock\\fsl_clock_manager.c 0x00000000   Number         0  fsl_clock_manager.o ABSOLUTE
    C:\\Keil_v5\\ARM\\PACK\\Keil\\Kinetis_SDK_DFP\\2.2.0\\platform\\system\\src\\clock\\fsl_clock_manager_common.c 0x00000000   Number         0  fsl_clock_manager_common.o ABSOLUTE
    C:\\Keil_v5\\ARM\\PACK\\Keil\\Kinetis_SDK_DFP\\2.2.0\\platform\\system\\src\\interrupt\\fsl_interrupt_manager.c 0x00000000   Number         0  fsl_interrupt_manager.o ABSOLUTE
    C:\\Keil_v5\\ARM\\PACK\\Keil\\Kinetis_SDK_DFP\\2.2.0\\platform\\utilities\\src\\fsl_debug_console.c 0x00000000   Number         0  fsl_debug_console.o ABSOLUTE
    RTE\Device\MK64FN1M0VLL12\hardware_init.c 0x00000000   Number         0  hardware_init.o ABSOLUTE
    RTE\Device\MK64FN1M0VLL12\startup_MK64F12.s 0x00000000   Number         0  startup_mk64f12.o ABSOLUTE
    RTE\Device\MK64FN1M0VLL12\system_MK64F12.c 0x00000000   Number         0  system_mk64f12.o ABSOLUTE
    RTE\\Device\\MK64FN1M0VLL12\\hardware_init.c 0x00000000   Number         0  hardware_init.o ABSOLUTE
    RTE\\Device\\MK64FN1M0VLL12\\system_MK64F12.c 0x00000000   Number         0  system_mk64f12.o ABSOLUTE
    dc.s                                     0x00000000   Number         0  dc.o ABSOLUTE
    headsUp.c                                0x00000000   Number         0  headsup.o ABSOLUTE
    headsUp.c                                0x00000000   Number         0  headsup.o ABSOLUTE
    FlashConfig                              0x00000400   Section       16  startup_mk64f12.o(FlashConfig)
    !!!main                                  0x00000410   Section        8  __main.o(!!!main)
    !!!scatter                               0x00000418   Section       52  __scatter.o(!!!scatter)
    !!handler_copy                           0x0000044c   Section       26  __scatter_copy.o(!!handler_copy)
    !!handler_zi                             0x00000468   Section       28  __scatter_zi.o(!!handler_zi)
    .ARM.Collect$$libinit$$00000000          0x00000484   Section        2  libinit.o(.ARM.Collect$$libinit$$00000000)
    .ARM.Collect$$libinit$$00000001          0x00000486   Section        4  libinit2.o(.ARM.Collect$$libinit$$00000001)
    .ARM.Collect$$libinit$$00000004          0x0000048a   Section        0  libinit2.o(.ARM.Collect$$libinit$$00000004)
    .ARM.Collect$$libinit$$0000000A          0x0000048a   Section        0  libinit2.o(.ARM.Collect$$libinit$$0000000A)
    .ARM.Collect$$libinit$$0000000C          0x0000048a   Section        0  libinit2.o(.ARM.Collect$$libinit$$0000000C)
    .ARM.Collect$$libinit$$0000000D          0x0000048a   Section        4  libinit2.o(.ARM.Collect$$libinit$$0000000D)
    .ARM.Collect$$libinit$$0000000E          0x0000048e   Section        0  libinit2.o(.ARM.Collect$$libinit$$0000000E)
    .ARM.Collect$$libinit$$00000011          0x0000048e   Section        0  libinit2.o(.ARM.Collect$$libinit$$00000011)
    .ARM.Collect$$libinit$$00000013          0x0000048e   Section        0  libinit2.o(.ARM.Collect$$libinit$$00000013)
    .ARM.Collect$$libinit$$00000015          0x0000048e   Section        0  libinit2.o(.ARM.Collect$$libinit$$00000015)
    .ARM.Collect$$libinit$$00000017          0x0000048e   Section        0  libinit2.o(.ARM.Collect$$libinit$$00000017)
    .ARM.Collect$$libinit$$00000019          0x0000048e   Section        0  libinit2.o(.ARM.Collect$$libinit$$00000019)
    .ARM.Collect$$libinit$$0000001B          0x0000048e   Section        0  libinit2.o(.ARM.Collect$$libinit$$0000001B)
    .ARM.Collect$$libinit$$0000001D          0x0000048e   Section        0  libinit2.o(.ARM.Collect$$libinit$$0000001D)
    .ARM.Collect$$libinit$$0000001F          0x0000048e   Section        0  libinit2.o(.ARM.Collect$$libinit$$0000001F)
    .ARM.Collect$$libinit$$00000021          0x0000048e   Section        0  libinit2.o(.ARM.Collect$$libinit$$00000021)
    .ARM.Collect$$libinit$$00000023          0x0000048e   Section        0  libinit2.o(.ARM.Collect$$libinit$$00000023)
    .ARM.Collect$$libinit$$00000025          0x0000048e   Section        0  libinit2.o(.ARM.Collect$$libinit$$00000025)
    .ARM.Collect$$libinit$$0000002C          0x0000048e   Section        0  libinit2.o(.ARM.Collect$$libinit$$0000002C)
    .ARM.Collect$$libinit$$0000002E          0x0000048e   Section        0  libinit2.o(.ARM.Collect$$libinit$$0000002E)
    .ARM.Collect$$libinit$$00000030          0x0000048e   Section        0  libinit2.o(.ARM.Collect$$libinit$$00000030)
    .ARM.Collect$$libinit$$00000032          0x0000048e   Section        0  libinit2.o(.ARM.Collect$$libinit$$00000032)
    .ARM.Collect$$libinit$$00000033          0x0000048e   Section        2  libinit2.o(.ARM.Collect$$libinit$$00000033)
    .ARM.Collect$$libshutdown$$00000000      0x00000490   Section        2  libshutdown.o(.ARM.Collect$$libshutdown$$00000000)
    .ARM.Collect$$libshutdown$$00000002      0x00000492   Section        0  libshutdown2.o(.ARM.Collect$$libshutdown$$00000002)
    .ARM.Collect$$libshutdown$$00000004      0x00000492   Section        0  libshutdown2.o(.ARM.Collect$$libshutdown$$00000004)
    .ARM.Collect$$libshutdown$$00000007      0x00000492   Section        0  libshutdown2.o(.ARM.Collect$$libshutdown$$00000007)
    .ARM.Collect$$libshutdown$$0000000A      0x00000492   Section        0  libshutdown2.o(.ARM.Collect$$libshutdown$$0000000A)
    .ARM.Collect$$libshutdown$$0000000C      0x00000492   Section        0  libshutdown2.o(.ARM.Collect$$libshutdown$$0000000C)
    .ARM.Collect$$libshutdown$$0000000F      0x00000492   Section        0  libshutdown2.o(.ARM.Collect$$libshutdown$$0000000F)
    .ARM.Collect$$libshutdown$$00000010      0x00000492   Section        2  libshutdown2.o(.ARM.Collect$$libshutdown$$00000010)
    .ARM.Collect$$rtentry$$00000000          0x00000494   Section        0  __rtentry.o(.ARM.Collect$$rtentry$$00000000)
    .ARM.Collect$$rtentry$$00000002          0x00000494   Section        0  __rtentry2.o(.ARM.Collect$$rtentry$$00000002)
    .ARM.Collect$$rtentry$$00000007          0x00000494   Section        4  __rtentry7.o(.ARM.Collect$$rtentry$$00000007)
    .ARM.Collect$$rtentry$$00000009          0x00000498   Section        0  __rtentry2.o(.ARM.Collect$$rtentry$$00000009)
    .ARM.Collect$$rtentry$$0000000A          0x00000498   Section        4  __rtentry2.o(.ARM.Collect$$rtentry$$0000000A)
    .ARM.Collect$$rtentry$$0000000C          0x0000049c   Section        0  __rtentry2.o(.ARM.Collect$$rtentry$$0000000C)
    .ARM.Collect$$rtentry$$0000000D          0x0000049c   Section        8  __rtentry2.o(.ARM.Collect$$rtentry$$0000000D)
    .ARM.Collect$$rtentry$$00002718          0x000004a4   Section        4  __rtentry7.o(.ARM.Collect$$rtentry$$00002718)
    __lit__00000000                          0x000004a4   Data           4  __rtentry7.o(.ARM.Collect$$rtentry$$00002718)
    .ARM.Collect$$rtexit$$00000000           0x000004a8   Section        2  rtexit.o(.ARM.Collect$$rtexit$$00000000)
    .ARM.Collect$$rtexit$$00000002           0x000004aa   Section        0  rtexit2.o(.ARM.Collect$$rtexit$$00000002)
    .ARM.Collect$$rtexit$$00000003           0x000004aa   Section        4  rtexit2.o(.ARM.Collect$$rtexit$$00000003)
    .ARM.Collect$$rtexit$$00000004           0x000004ae   Section        6  rtexit2.o(.ARM.Collect$$rtexit$$00000004)
    .emb_text                                0x000004b4   Section       52  rand.o(.emb_text)
    .text                                    0x000004e8   Section       56  startup_mk64f12.o(.text)
    $v0                                      0x000004e8   Number         0  startup_mk64f12.o(.text)
    .text                                    0x00000520   Section        0  rand.o(.text)
    .text                                    0x0000055c   Section        0  assert.o(.text)
    .text                                    0x000005dc   Section        0  strlen.o(.text)
    .text                                    0x0000061a   Section      100  rt_memcpy_w.o(.text)
    .text                                    0x0000067e   Section       78  rt_memclr_w.o(.text)
    .text                                    0x000006cc   Section        0  abort.o(.text)
    .text                                    0x000006e2   Section        0  assert_puts.o(.text)
    .text                                    0x000006f6   Section        0  sys_wrch.o(.text)
    .text                                    0x00000704   Section        0  sys_exit.o(.text)
    .text                                    0x00000710   Section        0  defsig_abrt_outer.o(.text)
    .text                                    0x0000071e   Section        2  use_no_semi.o(.text)
    .text                                    0x00000720   Section        0  exit.o(.text)
    .text                                    0x00000720   Section        0  indicate_semi.o(.text)
    .text                                    0x00000732   Section        0  defsig_exit.o(.text)
    .text                                    0x0000073c   Section        0  defsig_abrt_inner.o(.text)
    .text                                    0x0000076c   Section        0  defsig_general.o(.text)
    i.Accelerometer_GetState                 0x000007a0   Section        0  fxos8700.o(i.Accelerometer_GetState)
    i.Accelerometer_Initialize               0x00000880   Section        0  fxos8700.o(i.Accelerometer_Initialize)
    i.BOARD_ClockInit                        0x000008a4   Section        0  board.o(i.BOARD_ClockInit)
    i.BOARD_InitOsc0                         0x0000090c   Section        0  board.o(i.BOARD_InitOsc0)
    i.BOARD_InitRtcOsc                       0x00000924   Section        0  board.o(i.BOARD_InitRtcOsc)
    i.CLOCK_HAL_EnablePll0InFllMode          0x0000093c   Section        0  fsl_mcg_hal.o(i.CLOCK_HAL_EnablePll0InFllMode)
    i.CLOCK_HAL_GetClkOutStat                0x0000097c   Section        0  fsl_mcg_hal_modes.o(i.CLOCK_HAL_GetClkOutStat)
    CLOCK_HAL_GetClkOutStat                  0x0000097d   Thumb Code    10  fsl_mcg_hal_modes.o(i.CLOCK_HAL_GetClkOutStat)
    i.CLOCK_HAL_GetClkOutStat                0x00000986   Section        0  fsl_clock_manager.o(i.CLOCK_HAL_GetClkOutStat)
    CLOCK_HAL_GetClkOutStat                  0x00000987   Thumb Code    10  fsl_clock_manager.o(i.CLOCK_HAL_GetClkOutStat)
    i.CLOCK_HAL_GetFllClk                    0x00000990   Section        0  fsl_mcg_hal.o(i.CLOCK_HAL_GetFllClk)
    i.CLOCK_HAL_GetFllRefClk                 0x000009e4   Section        0  fsl_mcg_hal.o(i.CLOCK_HAL_GetFllRefClk)
    i.CLOCK_HAL_GetFllSrc                    0x00000a30   Section        0  fsl_mcg_hal_modes.o(i.CLOCK_HAL_GetFllSrc)
    CLOCK_HAL_GetFllSrc                      0x00000a31   Thumb Code    14  fsl_mcg_hal_modes.o(i.CLOCK_HAL_GetFllSrc)
    i.CLOCK_HAL_GetInternalRefClk            0x00000a40   Section        0  fsl_mcg_hal.o(i.CLOCK_HAL_GetInternalRefClk)
    i.CLOCK_HAL_GetInternalRefClkMode        0x00000a7c   Section        0  fsl_mcg_hal.o(i.CLOCK_HAL_GetInternalRefClkMode)
    CLOCK_HAL_GetInternalRefClkMode          0x00000a7d   Thumb Code    14  fsl_mcg_hal.o(i.CLOCK_HAL_GetInternalRefClkMode)
    i.CLOCK_HAL_GetInternalRefClkMode        0x00000a8a   Section        0  fsl_mcg_hal_modes.o(i.CLOCK_HAL_GetInternalRefClkMode)
    CLOCK_HAL_GetInternalRefClkMode          0x00000a8b   Thumb Code    14  fsl_mcg_hal_modes.o(i.CLOCK_HAL_GetInternalRefClkMode)
    i.CLOCK_HAL_GetMcgExternalClkFreq        0x00000a98   Section        0  fsl_mcg_hal.o(i.CLOCK_HAL_GetMcgExternalClkFreq)
    CLOCK_HAL_GetMcgExternalClkFreq          0x00000a99   Thumb Code    18  fsl_mcg_hal.o(i.CLOCK_HAL_GetMcgExternalClkFreq)
    i.CLOCK_HAL_GetMcgMode                   0x00000aaa   Section        0  fsl_mcg_hal_modes.o(i.CLOCK_HAL_GetMcgMode)
    i.CLOCK_HAL_GetOutClk                    0x00000b40   Section        0  fsl_mcg_hal.o(i.CLOCK_HAL_GetOutClk)
    i.CLOCK_HAL_GetPll0Clk                   0x00000b8e   Section        0  fsl_mcg_hal.o(i.CLOCK_HAL_GetPll0Clk)
    i.CLOCK_HAL_GetPll0RefFreq               0x00000bd2   Section        0  fsl_mcg_hal.o(i.CLOCK_HAL_GetPll0RefFreq)
    i.CLOCK_HAL_IsOsc0Stable                 0x00000bde   Section        0  fsl_mcg_hal_modes.o(i.CLOCK_HAL_IsOsc0Stable)
    CLOCK_HAL_IsOsc0Stable                   0x00000bdf   Thumb Code    22  fsl_mcg_hal_modes.o(i.CLOCK_HAL_IsOsc0Stable)
    i.CLOCK_HAL_IsPllSelected                0x00000bf4   Section        0  fsl_mcg_hal_modes.o(i.CLOCK_HAL_IsPllSelected)
    CLOCK_HAL_IsPllSelected                  0x00000bf5   Thumb Code    22  fsl_mcg_hal_modes.o(i.CLOCK_HAL_IsPllSelected)
    i.CLOCK_HAL_PrepareOsc                   0x00000c0a   Section        0  fsl_mcg_hal_modes.o(i.CLOCK_HAL_PrepareOsc)
    CLOCK_HAL_PrepareOsc                     0x00000c0b   Thumb Code    42  fsl_mcg_hal_modes.o(i.CLOCK_HAL_PrepareOsc)
    i.CLOCK_HAL_SetClkOutSrc                 0x00000c34   Section        0  fsl_clock_manager.o(i.CLOCK_HAL_SetClkOutSrc)
    CLOCK_HAL_SetClkOutSrc                   0x00000c35   Thumb Code    10  fsl_clock_manager.o(i.CLOCK_HAL_SetClkOutSrc)
    i.CLOCK_HAL_SetFbeMode                   0x00000c3e   Section        0  fsl_mcg_hal_modes.o(i.CLOCK_HAL_SetFbeMode)
    i.CLOCK_HAL_SetFbiMode                   0x00000d24   Section        0  fsl_mcg_hal_modes.o(i.CLOCK_HAL_SetFbiMode)
    i.CLOCK_HAL_SetInternalRefClkMode        0x00000dd8   Section        0  fsl_mcg_hal.o(i.CLOCK_HAL_SetInternalRefClkMode)
    CLOCK_HAL_SetInternalRefClkMode          0x00000dd9   Thumb Code    12  fsl_mcg_hal.o(i.CLOCK_HAL_SetInternalRefClkMode)
    i.CLOCK_HAL_SetLowPowerModeCmd           0x00000de4   Section        0  fsl_clock_manager.o(i.CLOCK_HAL_SetLowPowerModeCmd)
    CLOCK_HAL_SetLowPowerModeCmd             0x00000de5   Thumb Code    12  fsl_clock_manager.o(i.CLOCK_HAL_SetLowPowerModeCmd)
    i.CLOCK_HAL_SetOsc0Mode                  0x00000df0   Section        0  fsl_mcg_hal.o(i.CLOCK_HAL_SetOsc0Mode)
    i.CLOCK_HAL_SetOutDiv                    0x00000e14   Section        0  fsl_sim_hal_mk64f12.o(i.CLOCK_HAL_SetOutDiv)
    i.CLOCK_HAL_SetPbeMode                   0x00000e4c   Section        0  fsl_mcg_hal_modes.o(i.CLOCK_HAL_SetPbeMode)
    i.CLOCK_HAL_TestFllExternalRefFreq       0x00000f34   Section        0  fsl_mcg_hal.o(i.CLOCK_HAL_TestFllExternalRefFreq)
    i.CLOCK_HAL_TestFllFreq                  0x00000f7c   Section        0  fsl_mcg_hal.o(i.CLOCK_HAL_TestFllFreq)
    i.CLOCK_HAL_TestOscFreq                  0x00000fb4   Section        0  fsl_mcg_hal.o(i.CLOCK_HAL_TestOscFreq)
    i.CLOCK_HAL_UpdateFastClkInternalRefDiv  0x00000fe8   Section        0  fsl_mcg_hal.o(i.CLOCK_HAL_UpdateFastClkInternalRefDiv)
    i.CLOCK_SYS_EnablePortClock              0x00001050   Section        0  fsl_clock_mk64f12.o(i.CLOCK_SYS_EnablePortClock)
    i.CLOCK_SYS_EnableUartClock              0x000010bc   Section        0  fsl_clock_mk64f12.o(i.CLOCK_SYS_EnableUartClock)
    i.CLOCK_SYS_FllStableDelay               0x00001128   Section        0  fsl_clock_mk64f12.o(i.CLOCK_SYS_FllStableDelay)
    CLOCK_SYS_FllStableDelay                 0x00001129   Thumb Code    30  fsl_clock_mk64f12.o(i.CLOCK_SYS_FllStableDelay)
    i.CLOCK_SYS_GetBusClockFreq              0x00001148   Section        0  fsl_clock_mk64f12.o(i.CLOCK_SYS_GetBusClockFreq)
    i.CLOCK_SYS_GetCoreClockFreq             0x0000116c   Section        0  fsl_clock_mk64f12.o(i.CLOCK_SYS_GetCoreClockFreq)
    i.CLOCK_SYS_GetSystemClockFreq           0x0000118c   Section        0  fsl_clock_mk64f12.o(i.CLOCK_SYS_GetSystemClockFreq)
    i.CLOCK_SYS_GetUartFreq                  0x000011ac   Section        0  fsl_clock_mk64f12.o(i.CLOCK_SYS_GetUartFreq)
    i.CLOCK_SYS_OscInit                      0x000011dc   Section        0  fsl_clock_manager.o(i.CLOCK_SYS_OscInit)
    i.CLOCK_SYS_RtcOscInit                   0x000012ac   Section        0  fsl_clock_manager.o(i.CLOCK_SYS_RtcOscInit)
    i.CLOCK_SYS_SetConfiguration             0x000013a8   Section        0  fsl_clock_mk64f12.o(i.CLOCK_SYS_SetConfiguration)
    i.CLOCK_SYS_SetMcgMode                   0x00001410   Section        0  fsl_clock_manager.o(i.CLOCK_SYS_SetMcgMode)
    i.CLOCK_SYS_SetMcgPeeToFbe               0x00001568   Section        0  fsl_clock_manager.o(i.CLOCK_SYS_SetMcgPeeToFbe)
    CLOCK_SYS_SetMcgPeeToFbe                 0x00001569   Thumb Code    66  fsl_clock_manager.o(i.CLOCK_SYS_SetMcgPeeToFbe)
    i.CLOCK_SYS_SetOscerConfigration         0x000015b0   Section        0  fsl_clock_manager.o(i.CLOCK_SYS_SetOscerConfigration)
    i.CLOCK_SYS_SetSimConfigration           0x000015d4   Section        0  fsl_clock_mk64f12.o(i.CLOCK_SYS_SetSimConfigration)
    CLOCK_SYS_SetSimConfigration             0x000015d5   Thumb Code    54  fsl_clock_mk64f12.o(i.CLOCK_SYS_SetSimConfigration)
    i.DMA0_IRQHandler                        0x00001614   Section        0  fsl_edma_irq.o(i.DMA0_IRQHandler)
    i.DMA10_IRQHandler                       0x0000161e   Section        0  fsl_edma_irq.o(i.DMA10_IRQHandler)
    i.DMA11_IRQHandler                       0x00001628   Section        0  fsl_edma_irq.o(i.DMA11_IRQHandler)
    i.DMA12_IRQHandler                       0x00001632   Section        0  fsl_edma_irq.o(i.DMA12_IRQHandler)
    i.DMA13_IRQHandler                       0x0000163c   Section        0  fsl_edma_irq.o(i.DMA13_IRQHandler)
    i.DMA14_IRQHandler                       0x00001646   Section        0  fsl_edma_irq.o(i.DMA14_IRQHandler)
    i.DMA15_IRQHandler                       0x00001650   Section        0  fsl_edma_irq.o(i.DMA15_IRQHandler)
    i.DMA1_IRQHandler                        0x0000165a   Section        0  fsl_edma_irq.o(i.DMA1_IRQHandler)
    i.DMA2_IRQHandler                        0x00001664   Section        0  fsl_edma_irq.o(i.DMA2_IRQHandler)
    i.DMA3_IRQHandler                        0x0000166e   Section        0  fsl_edma_irq.o(i.DMA3_IRQHandler)
    i.DMA4_IRQHandler                        0x00001678   Section        0  fsl_edma_irq.o(i.DMA4_IRQHandler)
    i.DMA5_IRQHandler                        0x00001682   Section        0  fsl_edma_irq.o(i.DMA5_IRQHandler)
    i.DMA6_IRQHandler                        0x0000168c   Section        0  fsl_edma_irq.o(i.DMA6_IRQHandler)
    i.DMA7_IRQHandler                        0x00001696   Section        0  fsl_edma_irq.o(i.DMA7_IRQHandler)
    i.DMA8_IRQHandler                        0x000016a0   Section        0  fsl_edma_irq.o(i.DMA8_IRQHandler)
    i.DMA9_IRQHandler                        0x000016aa   Section        0  fsl_edma_irq.o(i.DMA9_IRQHandler)
    i.DMAMUX_HAL_SetChannelCmd               0x000016b4   Section        0  fsl_edma_driver.o(i.DMAMUX_HAL_SetChannelCmd)
    DMAMUX_HAL_SetChannelCmd                 0x000016b5   Thumb Code    36  fsl_edma_driver.o(i.DMAMUX_HAL_SetChannelCmd)
    i.DbgConsole_Init                        0x00001708   Section        0  fsl_debug_console.o(i.DbgConsole_Init)
    i.EDMA_DRV_ClaimChannel                  0x000017c4   Section        0  fsl_edma_driver.o(i.EDMA_DRV_ClaimChannel)
    EDMA_DRV_ClaimChannel                    0x000017c5   Thumb Code   188  fsl_edma_driver.o(i.EDMA_DRV_ClaimChannel)
    i.EDMA_DRV_ClearIntStatus                0x000018b8   Section        0  fsl_edma_driver.o(i.EDMA_DRV_ClearIntStatus)
    EDMA_DRV_ClearIntStatus                  0x000018b9   Thumb Code    46  fsl_edma_driver.o(i.EDMA_DRV_ClearIntStatus)
    i.EDMA_DRV_IRQHandler                    0x000018ec   Section        0  fsl_edma_driver.o(i.EDMA_DRV_IRQHandler)
    i.EDMA_DRV_InstallCallback               0x00001918   Section        0  fsl_edma_driver.o(i.EDMA_DRV_InstallCallback)
    i.EDMA_DRV_PrepareDescriptorTransfer     0x00001924   Section        0  i2c_mk64f.o(i.EDMA_DRV_PrepareDescriptorTransfer)
    EDMA_DRV_PrepareDescriptorTransfer       0x00001925   Thumb Code    52  i2c_mk64f.o(i.EDMA_DRV_PrepareDescriptorTransfer)
    i.EDMA_DRV_PushDescriptorToReg           0x0000195c   Section        0  fsl_edma_driver.o(i.EDMA_DRV_PushDescriptorToReg)
    i.EDMA_DRV_RequestChannel                0x00001990   Section        0  fsl_edma_driver.o(i.EDMA_DRV_RequestChannel)
    i.EDMA_DRV_StartChannel                  0x00001a34   Section        0  fsl_edma_driver.o(i.EDMA_DRV_StartChannel)
    i.EDMA_HAL_HTCDClearReg                  0x00001a5c   Section        0  fsl_edma_hal.o(i.EDMA_HAL_HTCDClearReg)
    i.EDMA_HAL_PushSTCDToHTCD                0x00001ad0   Section        0  fsl_edma_hal.o(i.EDMA_HAL_PushSTCDToHTCD)
    i.EDMA_HAL_STCDSetAttribute              0x00001bb8   Section        0  fsl_edma_hal.o(i.EDMA_HAL_STCDSetAttribute)
    i.EDMA_HAL_STCDSetBandwidth              0x00001c0c   Section        0  i2c_mk64f.o(i.EDMA_HAL_STCDSetBandwidth)
    EDMA_HAL_STCDSetBandwidth                0x00001c0d   Thumb Code    32  i2c_mk64f.o(i.EDMA_HAL_STCDSetBandwidth)
    i.EDMA_HAL_STCDSetBasicTransfer          0x00001c38   Section        0  fsl_edma_hal.o(i.EDMA_HAL_STCDSetBasicTransfer)
    i.EDMA_HAL_STCDSetChannelMajorLink       0x00001d80   Section        0  i2c_mk64f.o(i.EDMA_HAL_STCDSetChannelMajorLink)
    EDMA_HAL_STCDSetChannelMajorLink         0x00001d81   Thumb Code    46  i2c_mk64f.o(i.EDMA_HAL_STCDSetChannelMajorLink)
    i.EDMA_HAL_STCDSetDisableDmaRequestAfterTCDDoneCmd 0x00001dbc   Section        0  i2c_mk64f.o(i.EDMA_HAL_STCDSetDisableDmaRequestAfterTCDDoneCmd)
    EDMA_HAL_STCDSetDisableDmaRequestAfterTCDDoneCmd 0x00001dbd   Thumb Code    36  i2c_mk64f.o(i.EDMA_HAL_STCDSetDisableDmaRequestAfterTCDDoneCmd)
    i.EDMA_HAL_STCDSetHalfCompleteIntCmd     0x00001dec   Section        0  i2c_mk64f.o(i.EDMA_HAL_STCDSetHalfCompleteIntCmd)
    EDMA_HAL_STCDSetHalfCompleteIntCmd       0x00001ded   Thumb Code    36  i2c_mk64f.o(i.EDMA_HAL_STCDSetHalfCompleteIntCmd)
    i.EDMA_HAL_STCDSetMajorCount             0x00001e1c   Section        0  fsl_edma_hal.o(i.EDMA_HAL_STCDSetMajorCount)
    i.EDMA_HAL_STCDSetNbytes                 0x00001e6c   Section        0  fsl_edma_hal.o(i.EDMA_HAL_STCDSetNbytes)
    i.EDMA_HAL_STCDSetScatterGatherCmd       0x00001ebc   Section        0  i2c_mk64f.o(i.EDMA_HAL_STCDSetScatterGatherCmd)
    EDMA_HAL_STCDSetScatterGatherCmd         0x00001ebd   Thumb Code    36  i2c_mk64f.o(i.EDMA_HAL_STCDSetScatterGatherCmd)
    i.EDMA_HAL_STCDSetScatterGatherLink      0x00001eec   Section        0  fsl_edma_hal.o(i.EDMA_HAL_STCDSetScatterGatherLink)
    i.EDMA_HAL_SetDmaRequestCmd              0x00001f60   Section        0  fsl_edma_hal.o(i.EDMA_HAL_SetDmaRequestCmd)
    i.EDMA_HAL_SetErrorIntCmd                0x00001f6a   Section        0  fsl_edma_hal.o(i.EDMA_HAL_SetErrorIntCmd)
    i.GPIO_HAL_ClearPinOutput                0x00001f74   Section        0  i2c_mk64f.o(i.GPIO_HAL_ClearPinOutput)
    GPIO_HAL_ClearPinOutput                  0x00001f75   Thumb Code    30  i2c_mk64f.o(i.GPIO_HAL_ClearPinOutput)
    i.GPIO_HAL_ReadPinInput                  0x00001fa4   Section        0  i2c_mk64f.o(i.GPIO_HAL_ReadPinInput)
    GPIO_HAL_ReadPinInput                    0x00001fa5   Thumb Code    34  i2c_mk64f.o(i.GPIO_HAL_ReadPinInput)
    i.GPIO_HAL_SetPinDir                     0x00001fd8   Section        0  fsl_gpio_hal.o(i.GPIO_HAL_SetPinDir)
    i.GPIO_HAL_SetPinOutput                  0x0000201c   Section        0  i2c_mk64f.o(i.GPIO_HAL_SetPinOutput)
    GPIO_HAL_SetPinOutput                    0x0000201d   Thumb Code    30  i2c_mk64f.o(i.GPIO_HAL_SetPinOutput)
    i.I2C0_Control                           0x0000204c   Section        0  i2c_mk64f.o(i.I2C0_Control)
    I2C0_Control                             0x0000204d   Thumb Code    18  i2c_mk64f.o(i.I2C0_Control)
    i.I2C0_GetDataCount                      0x00002064   Section        0  i2c_mk64f.o(i.I2C0_GetDataCount)
    I2C0_GetDataCount                        0x00002065   Thumb Code    10  i2c_mk64f.o(i.I2C0_GetDataCount)
    i.I2C0_GetStatus                         0x00002074   Section        0  i2c_mk64f.o(i.I2C0_GetStatus)
    I2C0_GetStatus                           0x00002075   Thumb Code    12  i2c_mk64f.o(i.I2C0_GetStatus)
    i.I2C0_IRQHandler                        0x00002084   Section        0  i2c_mk64f.o(i.I2C0_IRQHandler)
    i.I2C0_Initialize                        0x00002094   Section        0  i2c_mk64f.o(i.I2C0_Initialize)
    I2C0_Initialize                          0x00002095   Thumb Code    14  i2c_mk64f.o(i.I2C0_Initialize)
    i.I2C0_MasterReceive                     0x000020a8   Section        0  i2c_mk64f.o(i.I2C0_MasterReceive)
    I2C0_MasterReceive                       0x000020a9   Thumb Code    28  i2c_mk64f.o(i.I2C0_MasterReceive)
    i.I2C0_MasterTransmit                    0x000020c8   Section        0  i2c_mk64f.o(i.I2C0_MasterTransmit)
    I2C0_MasterTransmit                      0x000020c9   Thumb Code    28  i2c_mk64f.o(i.I2C0_MasterTransmit)
    i.I2C0_PowerControl                      0x000020e8   Section        0  i2c_mk64f.o(i.I2C0_PowerControl)
    I2C0_PowerControl                        0x000020e9   Thumb Code    14  i2c_mk64f.o(i.I2C0_PowerControl)
    i.I2C0_SlaveReceive                      0x000020fc   Section        0  i2c_mk64f.o(i.I2C0_SlaveReceive)
    I2C0_SlaveReceive                        0x000020fd   Thumb Code    18  i2c_mk64f.o(i.I2C0_SlaveReceive)
    i.I2C0_SlaveTransmit                     0x00002114   Section        0  i2c_mk64f.o(i.I2C0_SlaveTransmit)
    I2C0_SlaveTransmit                       0x00002115   Thumb Code    18  i2c_mk64f.o(i.I2C0_SlaveTransmit)
    i.I2C0_Uninitialize                      0x0000212c   Section        0  i2c_mk64f.o(i.I2C0_Uninitialize)
    I2C0_Uninitialize                        0x0000212d   Thumb Code    10  i2c_mk64f.o(i.I2C0_Uninitialize)
    i.I2C1_Control                           0x0000213c   Section        0  i2c_mk64f.o(i.I2C1_Control)
    I2C1_Control                             0x0000213d   Thumb Code    18  i2c_mk64f.o(i.I2C1_Control)
    i.I2C1_GetDataCount                      0x00002154   Section        0  i2c_mk64f.o(i.I2C1_GetDataCount)
    I2C1_GetDataCount                        0x00002155   Thumb Code    10  i2c_mk64f.o(i.I2C1_GetDataCount)
    i.I2C1_GetStatus                         0x00002164   Section        0  i2c_mk64f.o(i.I2C1_GetStatus)
    I2C1_GetStatus                           0x00002165   Thumb Code    12  i2c_mk64f.o(i.I2C1_GetStatus)
    i.I2C1_IRQHandler                        0x00002174   Section        0  i2c_mk64f.o(i.I2C1_IRQHandler)
    i.I2C1_Initialize                        0x00002184   Section        0  i2c_mk64f.o(i.I2C1_Initialize)
    I2C1_Initialize                          0x00002185   Thumb Code    14  i2c_mk64f.o(i.I2C1_Initialize)
    i.I2C1_MasterReceive                     0x00002198   Section        0  i2c_mk64f.o(i.I2C1_MasterReceive)
    I2C1_MasterReceive                       0x00002199   Thumb Code    28  i2c_mk64f.o(i.I2C1_MasterReceive)
    i.I2C1_MasterTransmit                    0x000021b8   Section        0  i2c_mk64f.o(i.I2C1_MasterTransmit)
    I2C1_MasterTransmit                      0x000021b9   Thumb Code    28  i2c_mk64f.o(i.I2C1_MasterTransmit)
    i.I2C1_PowerControl                      0x000021d8   Section        0  i2c_mk64f.o(i.I2C1_PowerControl)
    I2C1_PowerControl                        0x000021d9   Thumb Code    14  i2c_mk64f.o(i.I2C1_PowerControl)
    i.I2C1_SlaveReceive                      0x000021ec   Section        0  i2c_mk64f.o(i.I2C1_SlaveReceive)
    I2C1_SlaveReceive                        0x000021ed   Thumb Code    18  i2c_mk64f.o(i.I2C1_SlaveReceive)
    i.I2C1_SlaveTransmit                     0x00002204   Section        0  i2c_mk64f.o(i.I2C1_SlaveTransmit)
    I2C1_SlaveTransmit                       0x00002205   Thumb Code    18  i2c_mk64f.o(i.I2C1_SlaveTransmit)
    i.I2C1_Uninitialize                      0x0000221c   Section        0  i2c_mk64f.o(i.I2C1_Uninitialize)
    I2C1_Uninitialize                        0x0000221d   Thumb Code    10  i2c_mk64f.o(i.I2C1_Uninitialize)
    i.I2C2_Control                           0x0000222c   Section        0  i2c_mk64f.o(i.I2C2_Control)
    I2C2_Control                             0x0000222d   Thumb Code    18  i2c_mk64f.o(i.I2C2_Control)
    i.I2C2_GetDataCount                      0x00002244   Section        0  i2c_mk64f.o(i.I2C2_GetDataCount)
    I2C2_GetDataCount                        0x00002245   Thumb Code    10  i2c_mk64f.o(i.I2C2_GetDataCount)
    i.I2C2_GetStatus                         0x00002254   Section        0  i2c_mk64f.o(i.I2C2_GetStatus)
    I2C2_GetStatus                           0x00002255   Thumb Code    12  i2c_mk64f.o(i.I2C2_GetStatus)
    i.I2C2_IRQHandler                        0x00002264   Section        0  i2c_mk64f.o(i.I2C2_IRQHandler)
    i.I2C2_Initialize                        0x00002274   Section        0  i2c_mk64f.o(i.I2C2_Initialize)
    I2C2_Initialize                          0x00002275   Thumb Code    14  i2c_mk64f.o(i.I2C2_Initialize)
    i.I2C2_MasterReceive                     0x00002288   Section        0  i2c_mk64f.o(i.I2C2_MasterReceive)
    I2C2_MasterReceive                       0x00002289   Thumb Code    28  i2c_mk64f.o(i.I2C2_MasterReceive)
    i.I2C2_MasterTransmit                    0x000022a8   Section        0  i2c_mk64f.o(i.I2C2_MasterTransmit)
    I2C2_MasterTransmit                      0x000022a9   Thumb Code    28  i2c_mk64f.o(i.I2C2_MasterTransmit)
    i.I2C2_PowerControl                      0x000022c8   Section        0  i2c_mk64f.o(i.I2C2_PowerControl)
    I2C2_PowerControl                        0x000022c9   Thumb Code    14  i2c_mk64f.o(i.I2C2_PowerControl)
    i.I2C2_SlaveReceive                      0x000022dc   Section        0  i2c_mk64f.o(i.I2C2_SlaveReceive)
    I2C2_SlaveReceive                        0x000022dd   Thumb Code    18  i2c_mk64f.o(i.I2C2_SlaveReceive)
    i.I2C2_SlaveTransmit                     0x000022f4   Section        0  i2c_mk64f.o(i.I2C2_SlaveTransmit)
    I2C2_SlaveTransmit                       0x000022f5   Thumb Code    18  i2c_mk64f.o(i.I2C2_SlaveTransmit)
    i.I2C2_Uninitialize                      0x0000230c   Section        0  i2c_mk64f.o(i.I2C2_Uninitialize)
    I2C2_Uninitialize                        0x0000230d   Thumb Code    10  i2c_mk64f.o(i.I2C2_Uninitialize)
    i.I2CX_GetCapabilities                   0x0000231c   Section        0  i2c_mk64f.o(i.I2CX_GetCapabilities)
    I2CX_GetCapabilities                     0x0000231d   Thumb Code     6  i2c_mk64f.o(i.I2CX_GetCapabilities)
    i.I2CX_GetVersion                        0x00002328   Section        0  i2c_mk64f.o(i.I2CX_GetVersion)
    I2CX_GetVersion                          0x00002329   Thumb Code    10  i2c_mk64f.o(i.I2CX_GetVersion)
    i.I2C_Control                            0x00002338   Section        0  i2c_mk64f.o(i.I2C_Control)
    I2C_Control                              0x00002339   Thumb Code   480  i2c_mk64f.o(i.I2C_Control)
    i.I2C_GetDataCount                       0x0000252c   Section        0  i2c_mk64f.o(i.I2C_GetDataCount)
    I2C_GetDataCount                         0x0000252d   Thumb Code    20  i2c_mk64f.o(i.I2C_GetDataCount)
    i.I2C_GetStatus                          0x00002540   Section        0  i2c_mk64f.o(i.I2C_GetStatus)
    I2C_GetStatus                            0x00002541   Thumb Code     8  i2c_mk64f.o(i.I2C_GetStatus)
    i.I2C_HAL_ClearInt                       0x00002548   Section        0  i2c_mk64f.o(i.I2C_HAL_ClearInt)
    I2C_HAL_ClearInt                         0x00002549   Thumb Code     6  i2c_mk64f.o(i.I2C_HAL_ClearInt)
    i.I2C_HAL_GetStatusFlag                  0x0000254e   Section        0  i2c_mk64f.o(i.I2C_HAL_GetStatusFlag)
    I2C_HAL_GetStatusFlag                    0x0000254f   Thumb Code    12  i2c_mk64f.o(i.I2C_HAL_GetStatusFlag)
    i.I2C_HAL_GetStatusFlag                  0x0000255a   Section        0  fsl_i2c_hal.o(i.I2C_HAL_GetStatusFlag)
    I2C_HAL_GetStatusFlag                    0x0000255b   Thumb Code    12  fsl_i2c_hal.o(i.I2C_HAL_GetStatusFlag)
    i.I2C_HAL_Init                           0x00002566   Section        0  fsl_i2c_hal.o(i.I2C_HAL_Init)
    i.I2C_HAL_IsMaster                       0x00002584   Section        0  i2c_mk64f.o(i.I2C_HAL_IsMaster)
    I2C_HAL_IsMaster                         0x00002585   Thumb Code    22  i2c_mk64f.o(i.I2C_HAL_IsMaster)
    i.I2C_HAL_ReadByte                       0x0000259a   Section        0  i2c_mk64f.o(i.I2C_HAL_ReadByte)
    I2C_HAL_ReadByte                         0x0000259b   Thumb Code     6  i2c_mk64f.o(i.I2C_HAL_ReadByte)
    i.I2C_HAL_SendAck                        0x000025a0   Section        0  i2c_mk64f.o(i.I2C_HAL_SendAck)
    I2C_HAL_SendAck                          0x000025a1   Thumb Code    14  i2c_mk64f.o(i.I2C_HAL_SendAck)
    i.I2C_HAL_SendNak                        0x000025ae   Section        0  i2c_mk64f.o(i.I2C_HAL_SendNak)
    I2C_HAL_SendNak                          0x000025af   Thumb Code    14  i2c_mk64f.o(i.I2C_HAL_SendNak)
    i.I2C_HAL_SendStart                      0x000025bc   Section        0  fsl_i2c_hal.o(i.I2C_HAL_SendStart)
    i.I2C_HAL_SendStop                       0x000025e0   Section        0  fsl_i2c_hal.o(i.I2C_HAL_SendStop)
    i.I2C_HAL_SetAddress10bit                0x0000264c   Section        0  fsl_i2c_hal.o(i.I2C_HAL_SetAddress10bit)
    i.I2C_HAL_SetAddress7bit                 0x0000266e   Section        0  fsl_i2c_hal.o(i.I2C_HAL_SetAddress7bit)
    i.I2C_HAL_SetBaudRate                    0x00002684   Section        0  fsl_i2c_hal.o(i.I2C_HAL_SetBaudRate)
    i.I2C_HAL_SetDirMode                     0x0000272c   Section        0  i2c_mk64f.o(i.I2C_HAL_SetDirMode)
    I2C_HAL_SetDirMode                       0x0000272d   Thumb Code    12  i2c_mk64f.o(i.I2C_HAL_SetDirMode)
    i.I2C_HAL_SetDmaCmd                      0x00002738   Section        0  i2c_mk64f.o(i.I2C_HAL_SetDmaCmd)
    I2C_HAL_SetDmaCmd                        0x00002739   Thumb Code    12  i2c_mk64f.o(i.I2C_HAL_SetDmaCmd)
    i.I2C_HAL_SetIntCmd                      0x00002744   Section        0  i2c_mk64f.o(i.I2C_HAL_SetIntCmd)
    I2C_HAL_SetIntCmd                        0x00002745   Thumb Code    12  i2c_mk64f.o(i.I2C_HAL_SetIntCmd)
    i.I2C_HAL_WriteByte                      0x00002750   Section        0  i2c_mk64f.o(i.I2C_HAL_WriteByte)
    I2C_HAL_WriteByte                        0x00002751   Thumb Code     4  i2c_mk64f.o(i.I2C_HAL_WriteByte)
    i.I2C_Initialize                         0x00002754   Section        0  i2c_mk64f.o(i.I2C_Initialize)
    I2C_Initialize                           0x00002755   Thumb Code   244  i2c_mk64f.o(i.I2C_Initialize)
    i.I2C_MasterReceive                      0x0000284c   Section        0  i2c_mk64f.o(i.I2C_MasterReceive)
    I2C_MasterReceive                        0x0000284d   Thumb Code   318  i2c_mk64f.o(i.I2C_MasterReceive)
    i.I2C_MasterTransmit                     0x0000298a   Section        0  i2c_mk64f.o(i.I2C_MasterTransmit)
    I2C_MasterTransmit                       0x0000298b   Thumb Code   318  i2c_mk64f.o(i.I2C_MasterTransmit)
    i.I2C_PowerControl                       0x00002ac8   Section        0  i2c_mk64f.o(i.I2C_PowerControl)
    I2C_PowerControl                         0x00002ac9   Thumb Code   352  i2c_mk64f.o(i.I2C_PowerControl)
    i.I2C_SlaveReceive                       0x00002c30   Section        0  i2c_mk64f.o(i.I2C_SlaveReceive)
    I2C_SlaveReceive                         0x00002c31   Thumb Code    80  i2c_mk64f.o(i.I2C_SlaveReceive)
    i.I2C_SlaveTransmit                      0x00002c80   Section        0  i2c_mk64f.o(i.I2C_SlaveTransmit)
    I2C_SlaveTransmit                        0x00002c81   Thumb Code    80  i2c_mk64f.o(i.I2C_SlaveTransmit)
    i.I2C_Uninitialize                       0x00002cd0   Section        0  i2c_mk64f.o(i.I2C_Uninitialize)
    I2C_Uninitialize                         0x00002cd1   Thumb Code    10  i2c_mk64f.o(i.I2C_Uninitialize)
    i.I2Cx_DMA_Callback                      0x00002cdc   Section        0  i2c_mk64f.o(i.I2Cx_DMA_Callback)
    I2Cx_DMA_Callback                        0x00002cdd   Thumb Code    90  i2c_mk64f.o(i.I2Cx_DMA_Callback)
    i.I2Cx_IRQHandler                        0x00002d3c   Section        0  i2c_mk64f.o(i.I2Cx_IRQHandler)
    I2Cx_IRQHandler                          0x00002d3d   Thumb Code  1170  i2c_mk64f.o(i.I2Cx_IRQHandler)
    i.Initialize                             0x000031d0   Section        0  fxos8700.o(i.Initialize)
    i.OSC_HAL_SetCapacitor                   0x00003264   Section        0  fsl_osc_hal.o(i.OSC_HAL_SetCapacitor)
    i.OSC_HAL_SetExternalRefClkCmd           0x00003270   Section        0  fsl_clock_manager.o(i.OSC_HAL_SetExternalRefClkCmd)
    OSC_HAL_SetExternalRefClkCmd             0x00003271   Thumb Code    10  fsl_clock_manager.o(i.OSC_HAL_SetExternalRefClkCmd)
    i.OSC_HAL_SetExternalRefClkInStopModeCmd 0x0000327a   Section        0  fsl_clock_manager.o(i.OSC_HAL_SetExternalRefClkInStopModeCmd)
    OSC_HAL_SetExternalRefClkInStopModeCmd   0x0000327b   Thumb Code    10  fsl_clock_manager.o(i.OSC_HAL_SetExternalRefClkInStopModeCmd)
    i.PIT0_IRQHandler                        0x00003284   Section        0  headsup.o(i.PIT0_IRQHandler)
    i.PIT1_IRQHandler                        0x000032d8   Section        0  headsup.o(i.PIT1_IRQHandler)
    i.PORTA_IRQHandler                       0x000033d8   Section        0  headsup.o(i.PORTA_IRQHandler)
    i.PORT_HAL_SetMuxMode                    0x000033f8   Section        0  i2c_mk64f.o(i.PORT_HAL_SetMuxMode)
    PORT_HAL_SetMuxMode                      0x000033f9   Thumb Code    48  i2c_mk64f.o(i.PORT_HAL_SetMuxMode)
    i.PORT_HAL_SetMuxMode                    0x0000343c   Section        0  pin_mux.o(i.PORT_HAL_SetMuxMode)
    PORT_HAL_SetMuxMode                      0x0000343d   Thumb Code    48  pin_mux.o(i.PORT_HAL_SetMuxMode)
    i.PORT_HAL_SetOpenDrainCmd               0x00003480   Section        0  i2c_mk64f.o(i.PORT_HAL_SetOpenDrainCmd)
    PORT_HAL_SetOpenDrainCmd                 0x00003481   Thumb Code    38  i2c_mk64f.o(i.PORT_HAL_SetOpenDrainCmd)
    i.PTx_Base                               0x000034b8   Section        0  i2c_mk64f.o(i.PTx_Base)
    PTx_Base                                 0x000034b9   Thumb Code    72  i2c_mk64f.o(i.PTx_Base)
    i.RTC_HAL_SetOscillatorCmd               0x00003510   Section        0  fsl_clock_manager.o(i.RTC_HAL_SetOscillatorCmd)
    RTC_HAL_SetOscillatorCmd                 0x00003511   Thumb Code    14  fsl_clock_manager.o(i.RTC_HAL_SetOscillatorCmd)
    i.Register_Read                          0x00003520   Section        0  fxos8700.o(i.Register_Read)
    Register_Read                            0x00003521   Thumb Code   108  fxos8700.o(i.Register_Read)
    i.Register_Write                         0x00003590   Section        0  fxos8700.o(i.Register_Write)
    Register_Write                           0x00003591   Thumb Code    66  fxos8700.o(i.Register_Write)
    i.SIM_HAL_EnableClock                    0x000035d8   Section        0  fsl_clock_mk64f12.o(i.SIM_HAL_EnableClock)
    SIM_HAL_EnableClock                      0x000035d9   Thumb Code    34  fsl_clock_mk64f12.o(i.SIM_HAL_EnableClock)
    i.SystemCoreClockUpdate                  0x000035fc   Section        0  system_mk64f12.o(i.SystemCoreClockUpdate)
    i.SystemInit                             0x000037c0   Section        0  system_mk64f12.o(i.SystemInit)
    i.UART_HAL_Getchar                       0x000037ec   Section        0  fsl_uart_hal.o(i.UART_HAL_Getchar)
    i.UART_HAL_Putchar                       0x000037f8   Section        0  fsl_uart_hal.o(i.UART_HAL_Putchar)
    i.UART_HAL_ReceiveDataPolling            0x00003802   Section        0  fsl_uart_hal.o(i.UART_HAL_ReceiveDataPolling)
    i.UART_HAL_SendDataPolling               0x00003858   Section        0  fsl_uart_hal.o(i.UART_HAL_SendDataPolling)
    i.UART_HAL_SetBaudRate                   0x00003886   Section        0  fsl_uart_hal.o(i.UART_HAL_SetBaudRate)
    i.UART_HAL_SetParityMode                 0x000038ca   Section        0  fsl_uart_hal.o(i.UART_HAL_SetParityMode)
    i.__NVIC_EnableIRQ                       0x000038e6   Section        0  headsup.o(i.__NVIC_EnableIRQ)
    __NVIC_EnableIRQ                         0x000038e7   Thumb Code    26  headsup.o(i.__NVIC_EnableIRQ)
    i.__NVIC_SetPriority                     0x00003900   Section        0  headsup.o(i.__NVIC_SetPriority)
    __NVIC_SetPriority                       0x00003901   Thumb Code    32  headsup.o(i.__NVIC_SetPriority)
    i._doprint                               0x00003928   Section        0  print_scan.o(i._doprint)
    i.configure_uart_pins                    0x00003e8c   Section        0  pin_mux.o(i.configure_uart_pins)
    i.dbg_uart_init                          0x00003ed4   Section        0  board.o(i.dbg_uart_init)
    i.debug_printf                           0x00003eec   Section        0  fsl_debug_console.o(i.debug_printf)
    i.debug_putc                             0x00003f28   Section        0  fsl_debug_console.o(i.debug_putc)
    debug_putc                               0x00003f29   Thumb Code    38  fsl_debug_console.o(i.debug_putc)
    i.fput_pad                               0x00003f54   Section        0  print_scan.o(i.fput_pad)
    fput_pad                                 0x00003f55   Thumb Code    48  print_scan.o(i.fput_pad)
    i.game_over                              0x00003f84   Section        0  headsup.o(i.game_over)
    i.hardware_init                          0x00003ff0   Section        0  hardware_init.o(i.hardware_init)
    i.init_data_bss                          0x00004010   Section        0  startup.o(i.init_data_bss)
    i.main                                   0x00004058   Section        0  headsup.o(i.main)
    i.mknumstr                               0x00004b60   Section        0  print_scan.o(i.mknumstr)
    mknumstr                                 0x00004b61   Thumb Code   166  print_scan.o(i.mknumstr)
    i.print_next                             0x00004c08   Section        0  headsup.o(i.print_next)
    i.shuffle                                0x00004c4c   Section        0  headsup.o(i.shuffle)
    i.timer_setup                            0x00004c80   Section        0  headsup.o(i.timer_setup)
    x$fpl$fpinit                             0x00004ce4   Section       10  fpinit.o(x$fpl$fpinit)
    $v0                                      0x00004ce4   Number         0  fpinit.o(x$fpl$fpinit)
    .constdata                               0x00004cf0   Section      272  i2c_mk64f.o(.constdata)
    DriverVersion                            0x00004cf0   Data           4  i2c_mk64f.o(.constdata)
    DriverCapabilities                       0x00004cf4   Data           4  i2c_mk64f.o(.constdata)
    I2C0_Resources                           0x00004cf8   Data          40  i2c_mk64f.o(.constdata)
    I2C1_Resources                           0x00004d20   Data          40  i2c_mk64f.o(.constdata)
    I2C2_Resources                           0x00004d48   Data          40  i2c_mk64f.o(.constdata)
    .constdata                               0x00004e00   Section       72  board.o(.constdata)
    .constdata                               0x00004e48   Section       25  fsl_edma_common.o(.constdata)
    .constdata                               0x00004e64   Section        6  fsl_rtc_common.o(.constdata)
    .constdata                               0x00004e6a   Section      200  fsl_i2c_hal.o(.constdata)
    .constdata                               0x00004f32   Section       48  fsl_mcg_hal.o(.constdata)
    fllFactorTable                           0x00004f32   Data          16  fsl_mcg_hal.o(.constdata)
    freq_kHz                                 0x00004f42   Data          16  fsl_mcg_hal.o(.constdata)
    freqLow_kHz                              0x00004f52   Data          16  fsl_mcg_hal.o(.constdata)
    .constdata                               0x00004f62   Section       25  fsl_clock_mk64f12.o(.constdata)
    portGateTable                            0x00004f62   Data           5  fsl_clock_mk64f12.o(.constdata)
    adcGateTable                             0x00004f67   Data           2  fsl_clock_mk64f12.o(.constdata)
    dacGateTable                             0x00004f69   Data           2  fsl_clock_mk64f12.o(.constdata)
    ftmGateTable                             0x00004f6b   Data           4  fsl_clock_mk64f12.o(.constdata)
    spiGateTable                             0x00004f6f   Data           3  fsl_clock_mk64f12.o(.constdata)
    i2cGateTable                             0x00004f72   Data           3  fsl_clock_mk64f12.o(.constdata)
    uartGateTable                            0x00004f75   Data           6  fsl_clock_mk64f12.o(.constdata)
    .constdata                               0x00004f7c   Section       12  fsl_clock_manager_common.o(.constdata)
    .constdata                               0x00004f88   Section       24  fsl_debug_console.o(.constdata)
    .conststring                             0x00004fa0   Section      128  headsup.o(.conststring)
    .conststring                             0x00005020   Section      239  i2c_mk64f.o(.conststring)
    .conststring                             0x00005110   Section       81  fsl_edma_driver.o(.conststring)
    .conststring                             0x00005164   Section       84  fsl_edma_hal.o(.conststring)
    .conststring                             0x000051b8   Section       84  fsl_gpio_hal.o(.conststring)
    .conststring                             0x0000520c   Section       82  fsl_i2c_hal.o(.conststring)
    .conststring                             0x00005260   Section      101  fsl_clock_mk64f12.o(.conststring)
    .conststring                             0x000052c8   Section       93  fsl_clock_manager.o(.conststring)
    .data                                    0x20000000   Section       20  headsup.o(.data)
    .data                                    0x20000014   Section        1  fxos8700.o(.data)
    Status                                   0x20000014   Data           1  fxos8700.o(.data)
    .data                                    0x20000018   Section        4  fsl_edma_driver.o(.data)
    .data                                    0x2000001c   Section       16  fsl_mcg_hal.o(.data)
    .data                                    0x2000002c   Section        4  system_mk64f12.o(.data)
    .bss                                     0x20000030   Section      492  headsup.o(.bss)
    .bss                                     0x2000021c   Section       96  i2c_mk64f.o(.bss)
    I2C0_Ctrl                                0x2000021c   Data          32  i2c_mk64f.o(.bss)
    I2C1_Ctrl                                0x2000023c   Data          32  i2c_mk64f.o(.bss)
    I2C2_Ctrl                                0x2000025c   Data          32  i2c_mk64f.o(.bss)
    .bss                                     0x2000027c   Section       16  fsl_debug_console.o(.bss)
    s_debugConsole                           0x2000027c   Data          16  fsl_debug_console.o(.bss)
    .bss                                     0x2000028c   Section      228  rand.o(.bss)

    Global Symbols

    Symbol Name                              Value     Ov Type        Size  Object(Section)

    BuildAttributes$$THM_ISAv4$E$P$D$K$B$S$7EM$VFPi3$EXTD16$VFPS$VFMA$PE$A:L22UL41UL21$X:L11$S22US41US21$IEEE1$IW$USESV6$~STKCKD$USESV7$~SHL$OTIME$ROPI$EBA8$UX$STANDARDLIB$REQ8$PRES8$EABIv2 0x00000000   Number         0  anon$$obj.o ABSOLUTE
    Image$$VECTOR_RAM$$Base                  0x00000000   Number         0  anon$$obj.o ABSOLUTE
    Image$$VECTOR_ROM$$Base                  0x00000000   Number         0  anon$$obj.o ABSOLUTE
    __ARM_use_no_argv                        0x00000000   Number         0  headsup.o ABSOLUTE
    __Vectors                                0x00000000   Data           4  startup_mk64f12.o(RESET)
    Image$$ZI$$Limit                          - Undefined Weak Reference
    __ARM_exceptions_init                     - Undefined Weak Reference
    __alloca_initialize                       - Undefined Weak Reference
    __arm_preinit_                            - Undefined Weak Reference
    __cpp_initialize__aeabi_                  - Undefined Weak Reference
    __cxa_finalize                            - Undefined Weak Reference
    __rt_locale                               - Undefined Weak Reference
    __sigvec_lookup                           - Undefined Weak Reference
    __user_heap_extent                        - Undefined Weak Reference
    _atexit_init                              - Undefined Weak Reference
    _call_atexit_fns                          - Undefined Weak Reference
    _clock_init                               - Undefined Weak Reference
    _fp_trap_init                             - Undefined Weak Reference
    _fp_trap_shutdown                         - Undefined Weak Reference
    _get_lc_collate                           - Undefined Weak Reference
    _get_lc_ctype                             - Undefined Weak Reference
    _get_lc_monetary                          - Undefined Weak Reference
    _get_lc_numeric                           - Undefined Weak Reference
    _get_lc_time                              - Undefined Weak Reference
    _getenv_init                              - Undefined Weak Reference
    _handle_redirection                       - Undefined Weak Reference
    _initio                                   - Undefined Weak Reference
    _mutex_acquire                            - Undefined Weak Reference
    _mutex_free                               - Undefined Weak Reference
    _mutex_release                            - Undefined Weak Reference
    _signal_finish                            - Undefined Weak Reference
    _signal_init                              - Undefined Weak Reference
    _terminateio                              - Undefined Weak Reference
    __Vectors_End                            0x00000400   Data           0  startup_mk64f12.o(RESET)
    __Vectors_Size                           0x00000400   Number         0  startup_mk64f12.o ABSOLUTE
    __main                                   0x00000411   Thumb Code     8  __main.o(!!!main)
    __scatterload                            0x00000419   Thumb Code     0  __scatter.o(!!!scatter)
    __scatterload_rt2                        0x00000419   Thumb Code    44  __scatter.o(!!!scatter)
    __scatterload_rt2_thumb_only             0x00000419   Thumb Code     0  __scatter.o(!!!scatter)
    __scatterload_null                       0x00000427   Thumb Code     0  __scatter.o(!!!scatter)
    __scatterload_copy                       0x0000044d   Thumb Code    26  __scatter_copy.o(!!handler_copy)
    __scatterload_zeroinit                   0x00000469   Thumb Code    28  __scatter_zi.o(!!handler_zi)
    __rt_lib_init                            0x00000485   Thumb Code     0  libinit.o(.ARM.Collect$$libinit$$00000000)
    __rt_lib_init_fp_1                       0x00000487   Thumb Code     0  libinit2.o(.ARM.Collect$$libinit$$00000001)
    __rt_lib_init_heap_1                     0x0000048b   Thumb Code     0  libinit2.o(.ARM.Collect$$libinit$$0000000A)
    __rt_lib_init_preinit_1                  0x0000048b   Thumb Code     0  libinit2.o(.ARM.Collect$$libinit$$00000004)
    __rt_lib_init_rand_2                     0x0000048b   Thumb Code     0  libinit2.o(.ARM.Collect$$libinit$$0000000D)
    __rt_lib_init_user_alloc_1               0x0000048b   Thumb Code     0  libinit2.o(.ARM.Collect$$libinit$$0000000C)
    __rt_lib_init_alloca_1                   0x0000048f   Thumb Code     0  libinit2.o(.ARM.Collect$$libinit$$0000002E)
    __rt_lib_init_argv_1                     0x0000048f   Thumb Code     0  libinit2.o(.ARM.Collect$$libinit$$0000002C)
    __rt_lib_init_atexit_1                   0x0000048f   Thumb Code     0  libinit2.o(.ARM.Collect$$libinit$$0000001B)
    __rt_lib_init_clock_1                    0x0000048f   Thumb Code     0  libinit2.o(.ARM.Collect$$libinit$$00000021)
    __rt_lib_init_cpp_1                      0x0000048f   Thumb Code     0  libinit2.o(.ARM.Collect$$libinit$$00000032)
    __rt_lib_init_exceptions_1               0x0000048f   Thumb Code     0  libinit2.o(.ARM.Collect$$libinit$$00000030)
    __rt_lib_init_fp_trap_1                  0x0000048f   Thumb Code     0  libinit2.o(.ARM.Collect$$libinit$$0000001F)
    __rt_lib_init_getenv_1                   0x0000048f   Thumb Code     0  libinit2.o(.ARM.Collect$$libinit$$00000023)
    __rt_lib_init_lc_collate_1               0x0000048f   Thumb Code     0  libinit2.o(.ARM.Collect$$libinit$$00000011)
    __rt_lib_init_lc_ctype_1                 0x0000048f   Thumb Code     0  libinit2.o(.ARM.Collect$$libinit$$00000013)
    __rt_lib_init_lc_monetary_1              0x0000048f   Thumb Code     0  libinit2.o(.ARM.Collect$$libinit$$00000015)
    __rt_lib_init_lc_numeric_1               0x0000048f   Thumb Code     0  libinit2.o(.ARM.Collect$$libinit$$00000017)
    __rt_lib_init_lc_time_1                  0x0000048f   Thumb Code     0  libinit2.o(.ARM.Collect$$libinit$$00000019)
    __rt_lib_init_rand_1                     0x0000048f   Thumb Code     0  libinit2.o(.ARM.Collect$$libinit$$0000000E)
    __rt_lib_init_return                     0x0000048f   Thumb Code     0  libinit2.o(.ARM.Collect$$libinit$$00000033)
    __rt_lib_init_signal_1                   0x0000048f   Thumb Code     0  libinit2.o(.ARM.Collect$$libinit$$0000001D)
    __rt_lib_init_stdio_1                    0x0000048f   Thumb Code     0  libinit2.o(.ARM.Collect$$libinit$$00000025)
    __rt_lib_shutdown                        0x00000491   Thumb Code     0  libshutdown.o(.ARM.Collect$$libshutdown$$00000000)
    __rt_lib_shutdown_cpp_1                  0x00000493   Thumb Code     0  libshutdown2.o(.ARM.Collect$$libshutdown$$00000002)
    __rt_lib_shutdown_fp_trap_1              0x00000493   Thumb Code     0  libshutdown2.o(.ARM.Collect$$libshutdown$$00000007)
    __rt_lib_shutdown_heap_1                 0x00000493   Thumb Code     0  libshutdown2.o(.ARM.Collect$$libshutdown$$0000000F)
    __rt_lib_shutdown_return                 0x00000493   Thumb Code     0  libshutdown2.o(.ARM.Collect$$libshutdown$$00000010)
    __rt_lib_shutdown_signal_1               0x00000493   Thumb Code     0  libshutdown2.o(.ARM.Collect$$libshutdown$$0000000A)
    __rt_lib_shutdown_stdio_1                0x00000493   Thumb Code     0  libshutdown2.o(.ARM.Collect$$libshutdown$$00000004)
    __rt_lib_shutdown_user_alloc_1           0x00000493   Thumb Code     0  libshutdown2.o(.ARM.Collect$$libshutdown$$0000000C)
    __rt_entry                               0x00000495   Thumb Code     0  __rtentry.o(.ARM.Collect$$rtentry$$00000000)
    __rt_entry_presh_1                       0x00000495   Thumb Code     0  __rtentry2.o(.ARM.Collect$$rtentry$$00000002)
    __rt_entry_sh                            0x00000495   Thumb Code     0  __rtentry7.o(.ARM.Collect$$rtentry$$00000007)
    __rt_entry_li                            0x00000499   Thumb Code     0  __rtentry2.o(.ARM.Collect$$rtentry$$0000000A)
    __rt_entry_postsh_1                      0x00000499   Thumb Code     0  __rtentry2.o(.ARM.Collect$$rtentry$$00000009)
    __rt_entry_main                          0x0000049d   Thumb Code     0  __rtentry2.o(.ARM.Collect$$rtentry$$0000000D)
    __rt_entry_postli_1                      0x0000049d   Thumb Code     0  __rtentry2.o(.ARM.Collect$$rtentry$$0000000C)
    __rt_exit                                0x000004a9   Thumb Code     0  rtexit.o(.ARM.Collect$$rtexit$$00000000)
    __rt_exit_ls                             0x000004ab   Thumb Code     0  rtexit2.o(.ARM.Collect$$rtexit$$00000003)
    __rt_exit_prels_1                        0x000004ab   Thumb Code     0  rtexit2.o(.ARM.Collect$$rtexit$$00000002)
    __rt_exit_exit                           0x000004af   Thumb Code     0  rtexit2.o(.ARM.Collect$$rtexit$$00000004)
    rand                                     0x000004b5   Thumb Code    48  rand.o(.emb_text)
    Reset_Handler                            0x000004e9   Thumb Code    18  startup_mk64f12.o(.text)
    NMI_Handler                              0x000004fb   Thumb Code     2  startup_mk64f12.o(.text)
    HardFault_Handler                        0x000004fd   Thumb Code     2  startup_mk64f12.o(.text)
    MemManage_Handler                        0x000004ff   Thumb Code     2  startup_mk64f12.o(.text)
    BusFault_Handler                         0x00000501   Thumb Code     2  startup_mk64f12.o(.text)
    UsageFault_Handler                       0x00000503   Thumb Code     2  startup_mk64f12.o(.text)
    SVC_Handler                              0x00000505   Thumb Code     2  startup_mk64f12.o(.text)
    DebugMon_Handler                         0x00000507   Thumb Code     2  startup_mk64f12.o(.text)
    PendSV_Handler                           0x00000509   Thumb Code     2  startup_mk64f12.o(.text)
    SysTick_Handler                          0x0000050b   Thumb Code     2  startup_mk64f12.o(.text)
    ADC0_IRQHandler                          0x0000050d   Thumb Code     0  startup_mk64f12.o(.text)
    ADC1_IRQHandler                          0x0000050d   Thumb Code     0  startup_mk64f12.o(.text)
    CAN0_Bus_Off_IRQHandler                  0x0000050d   Thumb Code     0  startup_mk64f12.o(.text)
    CAN0_Error_IRQHandler                    0x0000050d   Thumb Code     0  startup_mk64f12.o(.text)
    CAN0_ORed_Message_buffer_IRQHandler      0x0000050d   Thumb Code     0  startup_mk64f12.o(.text)
    CAN0_Rx_Warning_IRQHandler               0x0000050d   Thumb Code     0  startup_mk64f12.o(.text)
    CAN0_Tx_Warning_IRQHandler               0x0000050d   Thumb Code     0  startup_mk64f12.o(.text)
    CAN0_Wake_Up_IRQHandler                  0x0000050d   Thumb Code     0  startup_mk64f12.o(.text)
    CMP0_IRQHandler                          0x0000050d   Thumb Code     0  startup_mk64f12.o(.text)
    CMP1_IRQHandler                          0x0000050d   Thumb Code     0  startup_mk64f12.o(.text)
    CMP2_IRQHandler                          0x0000050d   Thumb Code     0  startup_mk64f12.o(.text)
    CMT_IRQHandler                           0x0000050d   Thumb Code     0  startup_mk64f12.o(.text)
    DAC0_IRQHandler                          0x0000050d   Thumb Code     0  startup_mk64f12.o(.text)
    DAC1_IRQHandler                          0x0000050d   Thumb Code     0  startup_mk64f12.o(.text)
    DMA_Error_IRQHandler                     0x0000050d   Thumb Code     0  startup_mk64f12.o(.text)
    DefaultISR                               0x0000050d   Thumb Code     0  startup_mk64f12.o(.text)
    ENET_1588_Timer_IRQHandler               0x0000050d   Thumb Code     0  startup_mk64f12.o(.text)
    ENET_Error_IRQHandler                    0x0000050d   Thumb Code     0  startup_mk64f12.o(.text)
    ENET_Receive_IRQHandler                  0x0000050d   Thumb Code     0  startup_mk64f12.o(.text)
    ENET_Transmit_IRQHandler                 0x0000050d   Thumb Code     0  startup_mk64f12.o(.text)
    FTFE_IRQHandler                          0x0000050d   Thumb Code     0  startup_mk64f12.o(.text)
    FTM0_IRQHandler                          0x0000050d   Thumb Code     0  startup_mk64f12.o(.text)
    FTM1_IRQHandler                          0x0000050d   Thumb Code     0  startup_mk64f12.o(.text)
    FTM2_IRQHandler                          0x0000050d   Thumb Code     0  startup_mk64f12.o(.text)
    FTM3_IRQHandler                          0x0000050d   Thumb Code     0  startup_mk64f12.o(.text)
    I2S0_Rx_IRQHandler                       0x0000050d   Thumb Code     0  startup_mk64f12.o(.text)
    I2S0_Tx_IRQHandler                       0x0000050d   Thumb Code     0  startup_mk64f12.o(.text)
    LLWU_IRQHandler                          0x0000050d   Thumb Code     0  startup_mk64f12.o(.text)
    LPTMR0_IRQHandler                        0x0000050d   Thumb Code     0  startup_mk64f12.o(.text)
    LVD_LVW_IRQHandler                       0x0000050d   Thumb Code     0  startup_mk64f12.o(.text)
    MCG_IRQHandler                           0x0000050d   Thumb Code     0  startup_mk64f12.o(.text)
    MCM_IRQHandler                           0x0000050d   Thumb Code     0  startup_mk64f12.o(.text)
    PDB0_IRQHandler                          0x0000050d   Thumb Code     0  startup_mk64f12.o(.text)
    PIT2_IRQHandler                          0x0000050d   Thumb Code     0  startup_mk64f12.o(.text)
    PIT3_IRQHandler                          0x0000050d   Thumb Code     0  startup_mk64f12.o(.text)
    PORTB_IRQHandler                         0x0000050d   Thumb Code     0  startup_mk64f12.o(.text)
    PORTC_IRQHandler                         0x0000050d   Thumb Code     0  startup_mk64f12.o(.text)
    PORTD_IRQHandler                         0x0000050d   Thumb Code     0  startup_mk64f12.o(.text)
    PORTE_IRQHandler                         0x0000050d   Thumb Code     0  startup_mk64f12.o(.text)
    RNG_IRQHandler                           0x0000050d   Thumb Code     0  startup_mk64f12.o(.text)
    RTC_IRQHandler                           0x0000050d   Thumb Code     0  startup_mk64f12.o(.text)
    RTC_Seconds_IRQHandler                   0x0000050d   Thumb Code     0  startup_mk64f12.o(.text)
    Read_Collision_IRQHandler                0x0000050d   Thumb Code     0  startup_mk64f12.o(.text)
    Reserved71_IRQHandler                    0x0000050d   Thumb Code     0  startup_mk64f12.o(.text)
    SDHC_IRQHandler                          0x0000050d   Thumb Code     0  startup_mk64f12.o(.text)
    SPI0_IRQHandler                          0x0000050d   Thumb Code     0  startup_mk64f12.o(.text)
    SPI1_IRQHandler                          0x0000050d   Thumb Code     0  startup_mk64f12.o(.text)
    SPI2_IRQHandler                          0x0000050d   Thumb Code     0  startup_mk64f12.o(.text)
    SWI_IRQHandler                           0x0000050d   Thumb Code     0  startup_mk64f12.o(.text)
    UART0_ERR_IRQHandler                     0x0000050d   Thumb Code     0  startup_mk64f12.o(.text)
    UART0_LON_IRQHandler                     0x0000050d   Thumb Code     0  startup_mk64f12.o(.text)
    UART0_RX_TX_IRQHandler                   0x0000050d   Thumb Code     0  startup_mk64f12.o(.text)
    UART1_ERR_IRQHandler                     0x0000050d   Thumb Code     0  startup_mk64f12.o(.text)
    UART1_RX_TX_IRQHandler                   0x0000050d   Thumb Code     0  startup_mk64f12.o(.text)
    UART2_ERR_IRQHandler                     0x0000050d   Thumb Code     0  startup_mk64f12.o(.text)
    UART2_RX_TX_IRQHandler                   0x0000050d   Thumb Code     0  startup_mk64f12.o(.text)
    UART3_ERR_IRQHandler                     0x0000050d   Thumb Code     0  startup_mk64f12.o(.text)
    UART3_RX_TX_IRQHandler                   0x0000050d   Thumb Code     0  startup_mk64f12.o(.text)
    UART4_ERR_IRQHandler                     0x0000050d   Thumb Code     0  startup_mk64f12.o(.text)
    UART4_RX_TX_IRQHandler                   0x0000050d   Thumb Code     0  startup_mk64f12.o(.text)
    UART5_ERR_IRQHandler                     0x0000050d   Thumb Code     0  startup_mk64f12.o(.text)
    UART5_RX_TX_IRQHandler                   0x0000050d   Thumb Code     0  startup_mk64f12.o(.text)
    USB0_IRQHandler                          0x0000050d   Thumb Code     0  startup_mk64f12.o(.text)
    USBDCD_IRQHandler                        0x0000050d   Thumb Code     0  startup_mk64f12.o(.text)
    WDOG_EWM_IRQHandler                      0x0000050d   Thumb Code     0  startup_mk64f12.o(.text)
    srand                                    0x00000521   Thumb Code    42  rand.o(.text)
    _rand_init                               0x0000054b   Thumb Code     4  rand.o(.text)
    __aeabi_assert                           0x0000055d   Thumb Code    86  assert.o(.text)
    __assert                                 0x0000055d   Thumb Code     0  assert.o(.text)
    strlen                                   0x000005dd   Thumb Code    62  strlen.o(.text)
    __aeabi_memcpy4                          0x0000061b   Thumb Code     0  rt_memcpy_w.o(.text)
    __aeabi_memcpy8                          0x0000061b   Thumb Code     0  rt_memcpy_w.o(.text)
    __rt_memcpy_w                            0x0000061b   Thumb Code   100  rt_memcpy_w.o(.text)
    _memcpy_lastbytes_aligned                0x00000663   Thumb Code     0  rt_memcpy_w.o(.text)
    __aeabi_memclr4                          0x0000067f   Thumb Code     0  rt_memclr_w.o(.text)
    __aeabi_memclr8                          0x0000067f   Thumb Code     0  rt_memclr_w.o(.text)
    __rt_memclr_w                            0x0000067f   Thumb Code    78  rt_memclr_w.o(.text)
    _memset_w                                0x00000683   Thumb Code     0  rt_memclr_w.o(.text)
    abort                                    0x000006cd   Thumb Code    22  abort.o(.text)
    __assert_puts                            0x000006e3   Thumb Code    20  assert_puts.o(.text)
    _ttywrch                                 0x000006f7   Thumb Code    14  sys_wrch.o(.text)
    _sys_exit                                0x00000705   Thumb Code     8  sys_exit.o(.text)
    __rt_SIGABRT                             0x00000711   Thumb Code    14  defsig_abrt_outer.o(.text)
    __I$use$semihosting                      0x0000071f   Thumb Code     0  use_no_semi.o(.text)
    __use_no_semihosting_swi                 0x0000071f   Thumb Code     2  use_no_semi.o(.text)
    __semihosting_library_function           0x00000721   Thumb Code     0  indicate_semi.o(.text)
    exit                                     0x00000721   Thumb Code    18  exit.o(.text)
    __sig_exit                               0x00000733   Thumb Code    10  defsig_exit.o(.text)
    __rt_SIGABRT_inner                       0x0000073d   Thumb Code    14  defsig_abrt_inner.o(.text)
    __default_signal_display                 0x0000076d   Thumb Code    50  defsig_general.o(.text)
    Accelerometer_GetState                   0x000007a1   Thumb Code   216  fxos8700.o(i.Accelerometer_GetState)
    Accelerometer_Initialize                 0x00000881   Thumb Code    32  fxos8700.o(i.Accelerometer_Initialize)
    BOARD_ClockInit                          0x000008a5   Thumb Code    72  board.o(i.BOARD_ClockInit)
    BOARD_InitOsc0                           0x0000090d   Thumb Code    20  board.o(i.BOARD_InitOsc0)
    BOARD_InitRtcOsc                         0x00000925   Thumb Code    20  board.o(i.BOARD_InitRtcOsc)
    CLOCK_HAL_EnablePll0InFllMode            0x0000093d   Thumb Code    64  fsl_mcg_hal.o(i.CLOCK_HAL_EnablePll0InFllMode)
    CLOCK_HAL_GetFllClk                      0x00000991   Thumb Code    82  fsl_mcg_hal.o(i.CLOCK_HAL_GetFllClk)
    CLOCK_HAL_GetFllRefClk                   0x000009e5   Thumb Code    72  fsl_mcg_hal.o(i.CLOCK_HAL_GetFllRefClk)
    CLOCK_HAL_GetInternalRefClk              0x00000a41   Thumb Code    52  fsl_mcg_hal.o(i.CLOCK_HAL_GetInternalRefClk)
    CLOCK_HAL_GetMcgMode                     0x00000aab   Thumb Code   150  fsl_mcg_hal_modes.o(i.CLOCK_HAL_GetMcgMode)
    CLOCK_HAL_GetOutClk                      0x00000b41   Thumb Code    78  fsl_mcg_hal.o(i.CLOCK_HAL_GetOutClk)
    CLOCK_HAL_GetPll0Clk                     0x00000b8f   Thumb Code    68  fsl_mcg_hal.o(i.CLOCK_HAL_GetPll0Clk)
    CLOCK_HAL_GetPll0RefFreq                 0x00000bd3   Thumb Code    12  fsl_mcg_hal.o(i.CLOCK_HAL_GetPll0RefFreq)
    CLOCK_HAL_SetFbeMode                     0x00000c3f   Thumb Code   228  fsl_mcg_hal_modes.o(i.CLOCK_HAL_SetFbeMode)
    CLOCK_HAL_SetFbiMode                     0x00000d25   Thumb Code   170  fsl_mcg_hal_modes.o(i.CLOCK_HAL_SetFbiMode)
    CLOCK_HAL_SetOsc0Mode                    0x00000df1   Thumb Code    36  fsl_mcg_hal.o(i.CLOCK_HAL_SetOsc0Mode)
    CLOCK_HAL_SetOutDiv                      0x00000e15   Thumb Code    56  fsl_sim_hal_mk64f12.o(i.CLOCK_HAL_SetOutDiv)
    CLOCK_HAL_SetPbeMode                     0x00000e4d   Thumb Code   228  fsl_mcg_hal_modes.o(i.CLOCK_HAL_SetPbeMode)
    CLOCK_HAL_TestFllExternalRefFreq         0x00000f35   Thumb Code    70  fsl_mcg_hal.o(i.CLOCK_HAL_TestFllExternalRefFreq)
    CLOCK_HAL_TestFllFreq                    0x00000f7d   Thumb Code    50  fsl_mcg_hal.o(i.CLOCK_HAL_TestFllFreq)
    CLOCK_HAL_TestOscFreq                    0x00000fb5   Thumb Code    38  fsl_mcg_hal.o(i.CLOCK_HAL_TestOscFreq)
    CLOCK_HAL_UpdateFastClkInternalRefDiv    0x00000fe9   Thumb Code   104  fsl_mcg_hal.o(i.CLOCK_HAL_UpdateFastClkInternalRefDiv)
    CLOCK_SYS_EnablePortClock                0x00001051   Thumb Code    34  fsl_clock_mk64f12.o(i.CLOCK_SYS_EnablePortClock)
    CLOCK_SYS_EnableUartClock                0x000010bd   Thumb Code    34  fsl_clock_mk64f12.o(i.CLOCK_SYS_EnableUartClock)
    CLOCK_SYS_GetBusClockFreq                0x00001149   Thumb Code    26  fsl_clock_mk64f12.o(i.CLOCK_SYS_GetBusClockFreq)
    CLOCK_SYS_GetCoreClockFreq               0x0000116d   Thumb Code    24  fsl_clock_mk64f12.o(i.CLOCK_SYS_GetCoreClockFreq)
    CLOCK_SYS_GetSystemClockFreq             0x0000118d   Thumb Code    24  fsl_clock_mk64f12.o(i.CLOCK_SYS_GetSystemClockFreq)
    CLOCK_SYS_GetUartFreq                    0x000011ad   Thumb Code    46  fsl_clock_mk64f12.o(i.CLOCK_SYS_GetUartFreq)
    CLOCK_SYS_OscInit                        0x000011dd   Thumb Code   160  fsl_clock_manager.o(i.CLOCK_SYS_OscInit)
    CLOCK_SYS_RtcOscInit                     0x000012ad   Thumb Code   204  fsl_clock_manager.o(i.CLOCK_SYS_RtcOscInit)
    CLOCK_SYS_SetConfiguration               0x000013a9   Thumb Code    72  fsl_clock_mk64f12.o(i.CLOCK_SYS_SetConfiguration)
    CLOCK_SYS_SetMcgMode                     0x00001411   Thumb Code   340  fsl_clock_manager.o(i.CLOCK_SYS_SetMcgMode)
    CLOCK_SYS_SetOscerConfigration           0x000015b1   Thumb Code    32  fsl_clock_manager.o(i.CLOCK_SYS_SetOscerConfigration)
    DMA0_IRQHandler                          0x00001615   Thumb Code    10  fsl_edma_irq.o(i.DMA0_IRQHandler)
    DMA10_IRQHandler                         0x0000161f   Thumb Code    10  fsl_edma_irq.o(i.DMA10_IRQHandler)
    DMA11_IRQHandler                         0x00001629   Thumb Code    10  fsl_edma_irq.o(i.DMA11_IRQHandler)
    DMA12_IRQHandler                         0x00001633   Thumb Code    10  fsl_edma_irq.o(i.DMA12_IRQHandler)
    DMA13_IRQHandler                         0x0000163d   Thumb Code    10  fsl_edma_irq.o(i.DMA13_IRQHandler)
    DMA14_IRQHandler                         0x00001647   Thumb Code    10  fsl_edma_irq.o(i.DMA14_IRQHandler)
    DMA15_IRQHandler                         0x00001651   Thumb Code    10  fsl_edma_irq.o(i.DMA15_IRQHandler)
    DMA1_IRQHandler                          0x0000165b   Thumb Code    10  fsl_edma_irq.o(i.DMA1_IRQHandler)
    DMA2_IRQHandler                          0x00001665   Thumb Code    10  fsl_edma_irq.o(i.DMA2_IRQHandler)
    DMA3_IRQHandler                          0x0000166f   Thumb Code    10  fsl_edma_irq.o(i.DMA3_IRQHandler)
    DMA4_IRQHandler                          0x00001679   Thumb Code    10  fsl_edma_irq.o(i.DMA4_IRQHandler)
    DMA5_IRQHandler                          0x00001683   Thumb Code    10  fsl_edma_irq.o(i.DMA5_IRQHandler)
    DMA6_IRQHandler                          0x0000168d   Thumb Code    10  fsl_edma_irq.o(i.DMA6_IRQHandler)
    DMA7_IRQHandler                          0x00001697   Thumb Code    10  fsl_edma_irq.o(i.DMA7_IRQHandler)
    DMA8_IRQHandler                          0x000016a1   Thumb Code    10  fsl_edma_irq.o(i.DMA8_IRQHandler)
    DMA9_IRQHandler                          0x000016ab   Thumb Code    10  fsl_edma_irq.o(i.DMA9_IRQHandler)
    DbgConsole_Init                          0x00001709   Thumb Code   172  fsl_debug_console.o(i.DbgConsole_Init)
    EDMA_DRV_IRQHandler                      0x000018ed   Thumb Code    38  fsl_edma_driver.o(i.EDMA_DRV_IRQHandler)
    EDMA_DRV_InstallCallback                 0x00001919   Thumb Code    10  fsl_edma_driver.o(i.EDMA_DRV_InstallCallback)
    EDMA_DRV_PushDescriptorToReg             0x0000195d   Thumb Code    46  fsl_edma_driver.o(i.EDMA_DRV_PushDescriptorToReg)
    EDMA_DRV_RequestChannel                  0x00001991   Thumb Code   160  fsl_edma_driver.o(i.EDMA_DRV_RequestChannel)
    EDMA_DRV_StartChannel                    0x00001a35   Thumb Code    36  fsl_edma_driver.o(i.EDMA_DRV_StartChannel)
    EDMA_HAL_HTCDClearReg                    0x00001a5d   Thumb Code   114  fsl_edma_hal.o(i.EDMA_HAL_HTCDClearReg)
    EDMA_HAL_PushSTCDToHTCD                  0x00001ad1   Thumb Code   176  fsl_edma_hal.o(i.EDMA_HAL_PushSTCDToHTCD)
    EDMA_HAL_STCDSetAttribute                0x00001bb9   Thumb Code    70  fsl_edma_hal.o(i.EDMA_HAL_STCDSetAttribute)
    EDMA_HAL_STCDSetBasicTransfer            0x00001c39   Thumb Code   308  fsl_edma_hal.o(i.EDMA_HAL_STCDSetBasicTransfer)
    EDMA_HAL_STCDSetMajorCount               0x00001e1d   Thumb Code    66  fsl_edma_hal.o(i.EDMA_HAL_STCDSetMajorCount)
    EDMA_HAL_STCDSetNbytes                   0x00001e6d   Thumb Code    66  fsl_edma_hal.o(i.EDMA_HAL_STCDSetNbytes)
    EDMA_HAL_STCDSetScatterGatherLink        0x00001eed   Thumb Code    80  fsl_edma_hal.o(i.EDMA_HAL_STCDSetScatterGatherLink)
    EDMA_HAL_SetDmaRequestCmd                0x00001f61   Thumb Code    10  fsl_edma_hal.o(i.EDMA_HAL_SetDmaRequestCmd)
    EDMA_HAL_SetErrorIntCmd                  0x00001f6b   Thumb Code    10  fsl_edma_hal.o(i.EDMA_HAL_SetErrorIntCmd)
    GPIO_HAL_SetPinDir                       0x00001fd9   Thumb Code    52  fsl_gpio_hal.o(i.GPIO_HAL_SetPinDir)
    I2C0_IRQHandler                          0x00002085   Thumb Code    10  i2c_mk64f.o(i.I2C0_IRQHandler)
    I2C1_IRQHandler                          0x00002175   Thumb Code    10  i2c_mk64f.o(i.I2C1_IRQHandler)
    I2C2_IRQHandler                          0x00002265   Thumb Code    10  i2c_mk64f.o(i.I2C2_IRQHandler)
    I2C_HAL_Init                             0x00002567   Thumb Code    30  fsl_i2c_hal.o(i.I2C_HAL_Init)
    I2C_HAL_SendStart                        0x000025bd   Thumb Code    36  fsl_i2c_hal.o(i.I2C_HAL_SendStart)
    I2C_HAL_SendStop                         0x000025e1   Thumb Code    74  fsl_i2c_hal.o(i.I2C_HAL_SendStop)
    I2C_HAL_SetAddress10bit                  0x0000264d   Thumb Code    34  fsl_i2c_hal.o(i.I2C_HAL_SetAddress10bit)
    I2C_HAL_SetAddress7bit                   0x0000266f   Thumb Code    20  fsl_i2c_hal.o(i.I2C_HAL_SetAddress7bit)
    I2C_HAL_SetBaudRate                      0x00002685   Thumb Code   162  fsl_i2c_hal.o(i.I2C_HAL_SetBaudRate)
    Initialize                               0x000031d1   Thumb Code   140  fxos8700.o(i.Initialize)
    OSC_HAL_SetCapacitor                     0x00003265   Thumb Code    12  fsl_osc_hal.o(i.OSC_HAL_SetCapacitor)
    PIT0_IRQHandler                          0x00003285   Thumb Code    60  headsup.o(i.PIT0_IRQHandler)
    PIT1_IRQHandler                          0x000032d9   Thumb Code   180  headsup.o(i.PIT1_IRQHandler)
    PORTA_IRQHandler                         0x000033d9   Thumb Code    18  headsup.o(i.PORTA_IRQHandler)
    SystemCoreClockUpdate                    0x000035fd   Thumb Code   426  system_mk64f12.o(i.SystemCoreClockUpdate)
    SystemInit                               0x000037c1   Thumb Code    34  system_mk64f12.o(i.SystemInit)
    UART_HAL_Getchar                         0x000037ed   Thumb Code    12  fsl_uart_hal.o(i.UART_HAL_Getchar)
    UART_HAL_Putchar                         0x000037f9   Thumb Code    10  fsl_uart_hal.o(i.UART_HAL_Putchar)
    UART_HAL_ReceiveDataPolling              0x00003803   Thumb Code    86  fsl_uart_hal.o(i.UART_HAL_ReceiveDataPolling)
    UART_HAL_SendDataPolling                 0x00003859   Thumb Code    46  fsl_uart_hal.o(i.UART_HAL_SendDataPolling)
    UART_HAL_SetBaudRate                     0x00003887   Thumb Code    68  fsl_uart_hal.o(i.UART_HAL_SetBaudRate)
    UART_HAL_SetParityMode                   0x000038cb   Thumb Code    28  fsl_uart_hal.o(i.UART_HAL_SetParityMode)
    _doprint                                 0x00003929   Thumb Code  1380  print_scan.o(i._doprint)
    configure_uart_pins                      0x00003e8d   Thumb Code    62  pin_mux.o(i.configure_uart_pins)
    dbg_uart_init                            0x00003ed5   Thumb Code    22  board.o(i.dbg_uart_init)
    debug_printf                             0x00003eed   Thumb Code    52  fsl_debug_console.o(i.debug_printf)
    game_over                                0x00003f85   Thumb Code    42  headsup.o(i.game_over)
    hardware_init                            0x00003ff1   Thumb Code    30  hardware_init.o(i.hardware_init)
    init_data_bss                            0x00004011   Thumb Code    54  startup.o(i.init_data_bss)
    main                                     0x00004059   Thumb Code  2788  headsup.o(i.main)
    print_next                               0x00004c09   Thumb Code    52  headsup.o(i.print_next)
    shuffle                                  0x00004c4d   Thumb Code    50  headsup.o(i.shuffle)
    timer_setup                              0x00004c81   Thumb Code    78  headsup.o(i.timer_setup)
    _fp_init                                 0x00004ce5   Thumb Code    10  fpinit.o(x$fpl$fpinit)
    __fplib_config_fpu_vfp                   0x00004ced   Thumb Code     0  fpinit.o(x$fpl$fpinit)
    __fplib_config_pureend_doubles           0x00004ced   Thumb Code     0  fpinit.o(x$fpl$fpinit)
    Driver_I2C0                              0x00004d70   Data          48  i2c_mk64f.o(.constdata)
    Driver_I2C1                              0x00004da0   Data          48  i2c_mk64f.o(.constdata)
    Driver_I2C2                              0x00004dd0   Data          48  i2c_mk64f.o(.constdata)
    g_defaultClockConfigVlpr                 0x00004e00   Data          22  board.o(.constdata)
    g_defaultClockConfigRun                  0x00004e16   Data          22  board.o(.constdata)
    g_edmaBase                               0x00004e48   Data           4  fsl_edma_common.o(.constdata)
    g_dmamuxBase                             0x00004e4c   Data           4  fsl_edma_common.o(.constdata)
    g_edmaIrqId                              0x00004e50   Data          16  fsl_edma_common.o(.constdata)
    g_edmaErrIrqId                           0x00004e60   Data           1  fsl_edma_common.o(.constdata)
    g_rtcBase                                0x00004e64   Data           4  fsl_rtc_common.o(.constdata)
    g_rtcIrqId                               0x00004e68   Data           1  fsl_rtc_common.o(.constdata)
    g_rtcSecondsIrqId                        0x00004e69   Data           1  fsl_rtc_common.o(.constdata)
    kI2CDividerTable                         0x00004e6a   Data         200  fsl_i2c_hal.o(.constdata)
    g_simBase                                0x00004f7c   Data           4  fsl_clock_manager_common.o(.constdata)
    g_mcgBase                                0x00004f80   Data           4  fsl_clock_manager_common.o(.constdata)
    g_oscBase                                0x00004f84   Data           4  fsl_clock_manager_common.o(.constdata)
    Region$$Table$$Base                      0x00005328   Number         0  anon$$obj.o(Region$$Table)
    Region$$Table$$Limit                     0x00005348   Number         0  anon$$obj.o(Region$$Table)
    Image$$RW_m_data$$Base                   0x1fff0000   Number         0  anon$$obj.o ABSOLUTE
    seconds                                  0x20000000   Data           4  headsup.o(.data)
    words_correct                            0x20000004   Data           4  headsup.o(.data)
    words_incorrect                          0x20000008   Data           4  headsup.o(.data)
    list_ind                                 0x2000000c   Data           4  headsup.o(.data)
    mode                                     0x20000010   Data           4  headsup.o(.data)
    g_edma                                   0x20000018   Data           4  fsl_edma_driver.o(.data)
    g_xtal0ClkFreq                           0x2000001c   Data           4  fsl_mcg_hal.o(.data)
    g_xtalRtcClkFreq                         0x20000020   Data           4  fsl_mcg_hal.o(.data)
    g_fastInternalRefClkFreq                 0x20000024   Data           4  fsl_mcg_hal.o(.data)
    g_slowInternalRefClkFreq                 0x20000028   Data           4  fsl_mcg_hal.o(.data)
    SystemCoreClock                          0x2000002c   Data           4  system_mk64f12.o(.data)
    state                                    0x20000030   Data          12  headsup.o(.bss)
    sports                                   0x2000003c   Data         120  headsup.o(.bss)
    nerd                                     0x200000b4   Data         120  headsup.o(.bss)
    music                                    0x2000012c   Data         120  headsup.o(.bss)
    movies                                   0x200001a4   Data         120  headsup.o(.bss)
    _random_number_data                      0x2000028c   Data         228  rand.o(.bss)
    Image$$ARM_LIB_HEAP$$ZI$$Base            0x20000370   Number         0  anon$$obj.o ABSOLUTE
    Image$$ARM_LIB_HEAP$$ZI$$Limit           0x20000770   Number         0  anon$$obj.o ABSOLUTE
    Image$$ARM_LIB_STACK$$ZI$$Limit          0x20030000   Number         0  anon$$obj.o ABSOLUTE



==============================================================================

Memory Map of the image

  Image Entry point : 0x00000411

  Load Region LR_m_text (Base: 0x00000410, Size: 0x00004f68, Max: 0x000ffbf0, ABSOLUTE)

    Execution Region ER_m_text (Base: 0x00000410, Size: 0x00004f38, Max: 0x000ffbf0, ABSOLUTE)

    Base Addr    Size         Type   Attr      Idx    E Section Name        Object

    0x00000410   0x00000008   Code   RO         4069  * !!!main             c_w.l(__main.o)
    0x00000418   0x00000034   Code   RO         4301    !!!scatter          c_w.l(__scatter.o)
    0x0000044c   0x0000001a   Code   RO         4303    !!handler_copy      c_w.l(__scatter_copy.o)
    0x00000466   0x00000002   PAD
    0x00000468   0x0000001c   Code   RO         4305    !!handler_zi        c_w.l(__scatter_zi.o)
    0x00000484   0x00000002   Code   RO         4240    .ARM.Collect$$libinit$$00000000  c_w.l(libinit.o)
    0x00000486   0x00000004   Code   RO         4109    .ARM.Collect$$libinit$$00000001  c_w.l(libinit2.o)
    0x0000048a   0x00000000   Code   RO         4112    .ARM.Collect$$libinit$$00000004  c_w.l(libinit2.o)
    0x0000048a   0x00000000   Code   RO         4115    .ARM.Collect$$libinit$$0000000A  c_w.l(libinit2.o)
    0x0000048a   0x00000000   Code   RO         4117    .ARM.Collect$$libinit$$0000000C  c_w.l(libinit2.o)
    0x0000048a   0x00000004   Code   RO         4118    .ARM.Collect$$libinit$$0000000D  c_w.l(libinit2.o)
    0x0000048e   0x00000000   Code   RO         4119    .ARM.Collect$$libinit$$0000000E  c_w.l(libinit2.o)
    0x0000048e   0x00000000   Code   RO         4122    .ARM.Collect$$libinit$$00000011  c_w.l(libinit2.o)
    0x0000048e   0x00000000   Code   RO         4124    .ARM.Collect$$libinit$$00000013  c_w.l(libinit2.o)
    0x0000048e   0x00000000   Code   RO         4126    .ARM.Collect$$libinit$$00000015  c_w.l(libinit2.o)
    0x0000048e   0x00000000   Code   RO         4128    .ARM.Collect$$libinit$$00000017  c_w.l(libinit2.o)
    0x0000048e   0x00000000   Code   RO         4130    .ARM.Collect$$libinit$$00000019  c_w.l(libinit2.o)
    0x0000048e   0x00000000   Code   RO         4132    .ARM.Collect$$libinit$$0000001B  c_w.l(libinit2.o)
    0x0000048e   0x00000000   Code   RO         4134    .ARM.Collect$$libinit$$0000001D  c_w.l(libinit2.o)
    0x0000048e   0x00000000   Code   RO         4136    .ARM.Collect$$libinit$$0000001F  c_w.l(libinit2.o)
    0x0000048e   0x00000000   Code   RO         4138    .ARM.Collect$$libinit$$00000021  c_w.l(libinit2.o)
    0x0000048e   0x00000000   Code   RO         4140    .ARM.Collect$$libinit$$00000023  c_w.l(libinit2.o)
    0x0000048e   0x00000000   Code   RO         4142    .ARM.Collect$$libinit$$00000025  c_w.l(libinit2.o)
    0x0000048e   0x00000000   Code   RO         4146    .ARM.Collect$$libinit$$0000002C  c_w.l(libinit2.o)
    0x0000048e   0x00000000   Code   RO         4148    .ARM.Collect$$libinit$$0000002E  c_w.l(libinit2.o)
    0x0000048e   0x00000000   Code   RO         4150    .ARM.Collect$$libinit$$00000030  c_w.l(libinit2.o)
    0x0000048e   0x00000000   Code   RO         4152    .ARM.Collect$$libinit$$00000032  c_w.l(libinit2.o)
    0x0000048e   0x00000002   Code   RO         4153    .ARM.Collect$$libinit$$00000033  c_w.l(libinit2.o)
    0x00000490   0x00000002   Code   RO         4298    .ARM.Collect$$libshutdown$$00000000  c_w.l(libshutdown.o)
    0x00000492   0x00000000   Code   RO         4260    .ARM.Collect$$libshutdown$$00000002  c_w.l(libshutdown2.o)
    0x00000492   0x00000000   Code   RO         4262    .ARM.Collect$$libshutdown$$00000004  c_w.l(libshutdown2.o)
    0x00000492   0x00000000   Code   RO         4265    .ARM.Collect$$libshutdown$$00000007  c_w.l(libshutdown2.o)
    0x00000492   0x00000000   Code   RO         4268    .ARM.Collect$$libshutdown$$0000000A  c_w.l(libshutdown2.o)
    0x00000492   0x00000000   Code   RO         4270    .ARM.Collect$$libshutdown$$0000000C  c_w.l(libshutdown2.o)
    0x00000492   0x00000000   Code   RO         4273    .ARM.Collect$$libshutdown$$0000000F  c_w.l(libshutdown2.o)
    0x00000492   0x00000002   Code   RO         4274    .ARM.Collect$$libshutdown$$00000010  c_w.l(libshutdown2.o)
    0x00000494   0x00000000   Code   RO         4073    .ARM.Collect$$rtentry$$00000000  c_w.l(__rtentry.o)
    0x00000494   0x00000000   Code   RO         4164    .ARM.Collect$$rtentry$$00000002  c_w.l(__rtentry2.o)
    0x00000494   0x00000004   Code   RO         4178    .ARM.Collect$$rtentry$$00000007  c_w.l(__rtentry7.o)
    0x00000498   0x00000000   Code   RO         4166    .ARM.Collect$$rtentry$$00000009  c_w.l(__rtentry2.o)
    0x00000498   0x00000004   Code   RO         4167    .ARM.Collect$$rtentry$$0000000A  c_w.l(__rtentry2.o)
    0x0000049c   0x00000000   Code   RO         4169    .ARM.Collect$$rtentry$$0000000C  c_w.l(__rtentry2.o)
    0x0000049c   0x00000008   Code   RO         4170    .ARM.Collect$$rtentry$$0000000D  c_w.l(__rtentry2.o)
    0x000004a4   0x00000004   Code   RO         4179    .ARM.Collect$$rtentry$$00002718  c_w.l(__rtentry7.o)
    0x000004a8   0x00000002   Code   RO         4243    .ARM.Collect$$rtexit$$00000000  c_w.l(rtexit.o)
    0x000004aa   0x00000000   Code   RO         4276    .ARM.Collect$$rtexit$$00000002  c_w.l(rtexit2.o)
    0x000004aa   0x00000004   Code   RO         4277    .ARM.Collect$$rtexit$$00000003  c_w.l(rtexit2.o)
    0x000004ae   0x00000006   Code   RO         4278    .ARM.Collect$$rtexit$$00000004  c_w.l(rtexit2.o)
    0x000004b4   0x00000034   Code   RO         4054    .emb_text           c_w.l(rand.o)
    0x000004e8   0x00000038   Code   RO         3946    .text               startup_mk64f12.o
    0x00000520   0x0000003c   Code   RO         4055    .text               c_w.l(rand.o)
    0x0000055c   0x00000080   Code   RO         4059    .text               c_w.l(assert.o)
    0x000005dc   0x0000003e   Code   RO         4061    .text               c_w.l(strlen.o)
    0x0000061a   0x00000064   Code   RO         4063    .text               c_w.l(rt_memcpy_w.o)
    0x0000067e   0x0000004e   Code   RO         4067    .text               c_w.l(rt_memclr_w.o)
    0x000006cc   0x00000016   Code   RO         4103    .text               c_w.l(abort.o)
    0x000006e2   0x00000014   Code   RO         4105    .text               c_w.l(assert_puts.o)
    0x000006f6   0x0000000e   Code   RO         4154    .text               c_w.l(sys_wrch.o)
    0x00000704   0x0000000c   Code   RO         4158    .text               c_w.l(sys_exit.o)
    0x00000710   0x0000000e   Code   RO         4193    .text               c_w.l(defsig_abrt_outer.o)
    0x0000071e   0x00000002   Code   RO         4210    .text               c_w.l(use_no_semi.o)
    0x00000720   0x00000000   Code   RO         4212    .text               c_w.l(indicate_semi.o)
    0x00000720   0x00000012   Code   RO         4219    .text               c_w.l(exit.o)
    0x00000732   0x0000000a   Code   RO         4221    .text               c_w.l(defsig_exit.o)
    0x0000073c   0x00000030   Code   RO         4223    .text               c_w.l(defsig_abrt_inner.o)
    0x0000076c   0x00000032   Code   RO         4251    .text               c_w.l(defsig_general.o)
    0x0000079e   0x00000002   PAD
    0x000007a0   0x000000e0   Code   RO          179    i.Accelerometer_GetState  fxos8700.o
    0x00000880   0x00000024   Code   RO          180    i.Accelerometer_Initialize  fxos8700.o
    0x000008a4   0x00000068   Code   RO          688    i.BOARD_ClockInit   board.o
    0x0000090c   0x00000018   Code   RO          689    i.BOARD_InitOsc0    board.o
    0x00000924   0x00000018   Code   RO          690    i.BOARD_InitRtcOsc  board.o
    0x0000093c   0x00000040   Code   RO         2178    i.CLOCK_HAL_EnablePll0InFllMode  fsl_mcg_hal.o
    0x0000097c   0x0000000a   Code   RO         2324    i.CLOCK_HAL_GetClkOutStat  fsl_mcg_hal_modes.o
    0x00000986   0x0000000a   Code   RO         3578    i.CLOCK_HAL_GetClkOutStat  fsl_clock_manager.o
    0x00000990   0x00000052   Code   RO         2182    i.CLOCK_HAL_GetFllClk  fsl_mcg_hal.o
    0x000009e2   0x00000002   PAD
    0x000009e4   0x0000004c   Code   RO         2183    i.CLOCK_HAL_GetFllRefClk  fsl_mcg_hal.o
    0x00000a30   0x0000000e   Code   RO         2325    i.CLOCK_HAL_GetFllSrc  fsl_mcg_hal_modes.o
    0x00000a3e   0x00000002   PAD
    0x00000a40   0x0000003c   Code   RO         2184    i.CLOCK_HAL_GetInternalRefClk  fsl_mcg_hal.o
    0x00000a7c   0x0000000e   Code   RO         2185    i.CLOCK_HAL_GetInternalRefClkMode  fsl_mcg_hal.o
    0x00000a8a   0x0000000e   Code   RO         2326    i.CLOCK_HAL_GetInternalRefClkMode  fsl_mcg_hal_modes.o
    0x00000a98   0x00000012   Code   RO         2186    i.CLOCK_HAL_GetMcgExternalClkFreq  fsl_mcg_hal.o
    0x00000aaa   0x00000096   Code   RO         2327    i.CLOCK_HAL_GetMcgMode  fsl_mcg_hal_modes.o
    0x00000b40   0x0000004e   Code   RO         2187    i.CLOCK_HAL_GetOutClk  fsl_mcg_hal.o
    0x00000b8e   0x00000044   Code   RO         2188    i.CLOCK_HAL_GetPll0Clk  fsl_mcg_hal.o
    0x00000bd2   0x0000000c   Code   RO         2189    i.CLOCK_HAL_GetPll0RefFreq  fsl_mcg_hal.o
    0x00000bde   0x00000016   Code   RO         2328    i.CLOCK_HAL_IsOsc0Stable  fsl_mcg_hal_modes.o
    0x00000bf4   0x00000016   Code   RO         2329    i.CLOCK_HAL_IsPllSelected  fsl_mcg_hal_modes.o
    0x00000c0a   0x0000002a   Code   RO         2330    i.CLOCK_HAL_PrepareOsc  fsl_mcg_hal_modes.o
    0x00000c34   0x0000000a   Code   RO         3579    i.CLOCK_HAL_SetClkOutSrc  fsl_clock_manager.o
    0x00000c3e   0x000000e4   Code   RO         2333    i.CLOCK_HAL_SetFbeMode  fsl_mcg_hal_modes.o
    0x00000d22   0x00000002   PAD
    0x00000d24   0x000000b4   Code   RO         2334    i.CLOCK_HAL_SetFbiMode  fsl_mcg_hal_modes.o
    0x00000dd8   0x0000000c   Code   RO         2190    i.CLOCK_HAL_SetInternalRefClkMode  fsl_mcg_hal.o
    0x00000de4   0x0000000c   Code   RO         3580    i.CLOCK_HAL_SetLowPowerModeCmd  fsl_clock_manager.o
    0x00000df0   0x00000024   Code   RO         2191    i.CLOCK_HAL_SetOsc0Mode  fsl_mcg_hal.o
    0x00000e14   0x00000038   Code   RO         2602    i.CLOCK_HAL_SetOutDiv  fsl_sim_hal_mk64f12.o
    0x00000e4c   0x000000e8   Code   RO         2337    i.CLOCK_HAL_SetPbeMode  fsl_mcg_hal_modes.o
    0x00000f34   0x00000046   Code   RO         2192    i.CLOCK_HAL_TestFllExternalRefFreq  fsl_mcg_hal.o
    0x00000f7a   0x00000002   PAD
    0x00000f7c   0x00000038   Code   RO         2193    i.CLOCK_HAL_TestFllFreq  fsl_mcg_hal.o
    0x00000fb4   0x00000034   Code   RO         2194    i.CLOCK_HAL_TestOscFreq  fsl_mcg_hal.o
    0x00000fe8   0x00000068   Code   RO         2196    i.CLOCK_HAL_UpdateFastClkInternalRefDiv  fsl_mcg_hal.o
    0x00001050   0x0000006c   Code   RO         3261    i.CLOCK_SYS_EnablePortClock  fsl_clock_mk64f12.o
    0x000010bc   0x0000006c   Code   RO         3263    i.CLOCK_SYS_EnableUartClock  fsl_clock_mk64f12.o
    0x00001128   0x0000001e   Code   RO         3264    i.CLOCK_SYS_FllStableDelay  fsl_clock_mk64f12.o
    0x00001146   0x00000002   PAD
    0x00001148   0x00000024   Code   RO         3266    i.CLOCK_SYS_GetBusClockFreq  fsl_clock_mk64f12.o
    0x0000116c   0x00000020   Code   RO         3267    i.CLOCK_SYS_GetCoreClockFreq  fsl_clock_mk64f12.o
    0x0000118c   0x00000020   Code   RO         3288    i.CLOCK_SYS_GetSystemClockFreq  fsl_clock_mk64f12.o
    0x000011ac   0x0000002e   Code   RO         3290    i.CLOCK_SYS_GetUartFreq  fsl_clock_mk64f12.o
    0x000011da   0x00000002   PAD
    0x000011dc   0x000000d0   Code   RO         3585    i.CLOCK_SYS_OscInit  fsl_clock_manager.o
    0x000012ac   0x000000fc   Code   RO         3587    i.CLOCK_SYS_RtcOscInit  fsl_clock_manager.o
    0x000013a8   0x00000068   Code   RO         3294    i.CLOCK_SYS_SetConfiguration  fsl_clock_mk64f12.o
    0x00001410   0x00000158   Code   RO         3588    i.CLOCK_SYS_SetMcgMode  fsl_clock_manager.o
    0x00001568   0x00000048   Code   RO         3589    i.CLOCK_SYS_SetMcgPeeToFbe  fsl_clock_manager.o
    0x000015b0   0x00000024   Code   RO         3590    i.CLOCK_SYS_SetOscerConfigration  fsl_clock_manager.o
    0x000015d4   0x00000040   Code   RO         3295    i.CLOCK_SYS_SetSimConfigration  fsl_clock_mk64f12.o
    0x00001614   0x0000000a   Code   RO         1144    i.DMA0_IRQHandler   fsl_edma_irq.o
    0x0000161e   0x0000000a   Code   RO         1145    i.DMA10_IRQHandler  fsl_edma_irq.o
    0x00001628   0x0000000a   Code   RO         1146    i.DMA11_IRQHandler  fsl_edma_irq.o
    0x00001632   0x0000000a   Code   RO         1147    i.DMA12_IRQHandler  fsl_edma_irq.o
    0x0000163c   0x0000000a   Code   RO         1148    i.DMA13_IRQHandler  fsl_edma_irq.o
    0x00001646   0x0000000a   Code   RO         1149    i.DMA14_IRQHandler  fsl_edma_irq.o
    0x00001650   0x0000000a   Code   RO         1150    i.DMA15_IRQHandler  fsl_edma_irq.o
    0x0000165a   0x0000000a   Code   RO         1151    i.DMA1_IRQHandler   fsl_edma_irq.o
    0x00001664   0x0000000a   Code   RO         1152    i.DMA2_IRQHandler   fsl_edma_irq.o
    0x0000166e   0x0000000a   Code   RO         1153    i.DMA3_IRQHandler   fsl_edma_irq.o
    0x00001678   0x0000000a   Code   RO         1154    i.DMA4_IRQHandler   fsl_edma_irq.o
    0x00001682   0x0000000a   Code   RO         1155    i.DMA5_IRQHandler   fsl_edma_irq.o
    0x0000168c   0x0000000a   Code   RO         1156    i.DMA6_IRQHandler   fsl_edma_irq.o
    0x00001696   0x0000000a   Code   RO         1157    i.DMA7_IRQHandler   fsl_edma_irq.o
    0x000016a0   0x0000000a   Code   RO         1158    i.DMA8_IRQHandler   fsl_edma_irq.o
    0x000016aa   0x0000000a   Code   RO         1159    i.DMA9_IRQHandler   fsl_edma_irq.o
    0x000016b4   0x00000054   Code   RO          981    i.DMAMUX_HAL_SetChannelCmd  fsl_edma_driver.o
    0x00001708   0x000000bc   Code   RO         3782    i.DbgConsole_Init   fsl_debug_console.o
    0x000017c4   0x000000f4   Code   RO          982    i.EDMA_DRV_ClaimChannel  fsl_edma_driver.o
    0x000018b8   0x00000034   Code   RO          983    i.EDMA_DRV_ClearIntStatus  fsl_edma_driver.o
    0x000018ec   0x0000002c   Code   RO          988    i.EDMA_DRV_IRQHandler  fsl_edma_driver.o
    0x00001918   0x0000000a   Code   RO          990    i.EDMA_DRV_InstallCallback  fsl_edma_driver.o
    0x00001922   0x00000002   PAD
    0x00001924   0x00000038   Code   RO          249    i.EDMA_DRV_PrepareDescriptorTransfer  i2c_mk64f.o
    0x0000195c   0x00000034   Code   RO          993    i.EDMA_DRV_PushDescriptorToReg  fsl_edma_driver.o
    0x00001990   0x000000a4   Code   RO          995    i.EDMA_DRV_RequestChannel  fsl_edma_driver.o
    0x00001a34   0x00000028   Code   RO          996    i.EDMA_DRV_StartChannel  fsl_edma_driver.o
    0x00001a5c   0x00000072   Code   RO         1780    i.EDMA_HAL_HTCDClearReg  fsl_edma_hal.o
    0x00001ace   0x00000002   PAD
    0x00001ad0   0x000000e8   Code   RO         1793    i.EDMA_HAL_PushSTCDToHTCD  fsl_edma_hal.o
    0x00001bb8   0x00000054   Code   RO         1794    i.EDMA_HAL_STCDSetAttribute  fsl_edma_hal.o
    0x00001c0c   0x0000002c   Code   RO          250    i.EDMA_HAL_STCDSetBandwidth  i2c_mk64f.o
    0x00001c38   0x00000148   Code   RO         1795    i.EDMA_HAL_STCDSetBasicTransfer  fsl_edma_hal.o
    0x00001d80   0x0000003c   Code   RO          251    i.EDMA_HAL_STCDSetChannelMajorLink  i2c_mk64f.o
    0x00001dbc   0x00000030   Code   RO          252    i.EDMA_HAL_STCDSetDisableDmaRequestAfterTCDDoneCmd  i2c_mk64f.o
    0x00001dec   0x00000030   Code   RO          253    i.EDMA_HAL_STCDSetHalfCompleteIntCmd  i2c_mk64f.o
    0x00001e1c   0x00000050   Code   RO         1797    i.EDMA_HAL_STCDSetMajorCount  fsl_edma_hal.o
    0x00001e6c   0x00000050   Code   RO         1799    i.EDMA_HAL_STCDSetNbytes  fsl_edma_hal.o
    0x00001ebc   0x00000030   Code   RO          254    i.EDMA_HAL_STCDSetScatterGatherCmd  i2c_mk64f.o
    0x00001eec   0x00000074   Code   RO         1800    i.EDMA_HAL_STCDSetScatterGatherLink  fsl_edma_hal.o
    0x00001f60   0x0000000a   Code   RO         1801    i.EDMA_HAL_SetDmaRequestCmd  fsl_edma_hal.o
    0x00001f6a   0x0000000a   Code   RO         1802    i.EDMA_HAL_SetErrorIntCmd  fsl_edma_hal.o
    0x00001f74   0x00000030   Code   RO          255    i.GPIO_HAL_ClearPinOutput  i2c_mk64f.o
    0x00001fa4   0x00000034   Code   RO          256    i.GPIO_HAL_ReadPinInput  i2c_mk64f.o
    0x00001fd8   0x00000044   Code   RO         1955    i.GPIO_HAL_SetPinDir  fsl_gpio_hal.o
    0x0000201c   0x00000030   Code   RO          257    i.GPIO_HAL_SetPinOutput  i2c_mk64f.o
    0x0000204c   0x00000018   Code   RO          258    i.I2C0_Control      i2c_mk64f.o
    0x00002064   0x00000010   Code   RO          259    i.I2C0_GetDataCount  i2c_mk64f.o
    0x00002074   0x00000010   Code   RO          260    i.I2C0_GetStatus    i2c_mk64f.o
    0x00002084   0x00000010   Code   RO          261    i.I2C0_IRQHandler   i2c_mk64f.o
    0x00002094   0x00000014   Code   RO          262    i.I2C0_Initialize   i2c_mk64f.o
    0x000020a8   0x00000020   Code   RO          263    i.I2C0_MasterReceive  i2c_mk64f.o
    0x000020c8   0x00000020   Code   RO          264    i.I2C0_MasterTransmit  i2c_mk64f.o
    0x000020e8   0x00000014   Code   RO          265    i.I2C0_PowerControl  i2c_mk64f.o
    0x000020fc   0x00000018   Code   RO          266    i.I2C0_SlaveReceive  i2c_mk64f.o
    0x00002114   0x00000018   Code   RO          267    i.I2C0_SlaveTransmit  i2c_mk64f.o
    0x0000212c   0x00000010   Code   RO          268    i.I2C0_Uninitialize  i2c_mk64f.o
    0x0000213c   0x00000018   Code   RO          269    i.I2C1_Control      i2c_mk64f.o
    0x00002154   0x00000010   Code   RO          270    i.I2C1_GetDataCount  i2c_mk64f.o
    0x00002164   0x00000010   Code   RO          271    i.I2C1_GetStatus    i2c_mk64f.o
    0x00002174   0x00000010   Code   RO          272    i.I2C1_IRQHandler   i2c_mk64f.o
    0x00002184   0x00000014   Code   RO          273    i.I2C1_Initialize   i2c_mk64f.o
    0x00002198   0x00000020   Code   RO          274    i.I2C1_MasterReceive  i2c_mk64f.o
    0x000021b8   0x00000020   Code   RO          275    i.I2C1_MasterTransmit  i2c_mk64f.o
    0x000021d8   0x00000014   Code   RO          276    i.I2C1_PowerControl  i2c_mk64f.o
    0x000021ec   0x00000018   Code   RO          277    i.I2C1_SlaveReceive  i2c_mk64f.o
    0x00002204   0x00000018   Code   RO          278    i.I2C1_SlaveTransmit  i2c_mk64f.o
    0x0000221c   0x00000010   Code   RO          279    i.I2C1_Uninitialize  i2c_mk64f.o
    0x0000222c   0x00000018   Code   RO          280    i.I2C2_Control      i2c_mk64f.o
    0x00002244   0x00000010   Code   RO          281    i.I2C2_GetDataCount  i2c_mk64f.o
    0x00002254   0x00000010   Code   RO          282    i.I2C2_GetStatus    i2c_mk64f.o
    0x00002264   0x00000010   Code   RO          283    i.I2C2_IRQHandler   i2c_mk64f.o
    0x00002274   0x00000014   Code   RO          284    i.I2C2_Initialize   i2c_mk64f.o
    0x00002288   0x00000020   Code   RO          285    i.I2C2_MasterReceive  i2c_mk64f.o
    0x000022a8   0x00000020   Code   RO          286    i.I2C2_MasterTransmit  i2c_mk64f.o
    0x000022c8   0x00000014   Code   RO          287    i.I2C2_PowerControl  i2c_mk64f.o
    0x000022dc   0x00000018   Code   RO          288    i.I2C2_SlaveReceive  i2c_mk64f.o
    0x000022f4   0x00000018   Code   RO          289    i.I2C2_SlaveTransmit  i2c_mk64f.o
    0x0000230c   0x00000010   Code   RO          290    i.I2C2_Uninitialize  i2c_mk64f.o
    0x0000231c   0x0000000c   Code   RO          291    i.I2CX_GetCapabilities  i2c_mk64f.o
    0x00002328   0x00000010   Code   RO          292    i.I2CX_GetVersion   i2c_mk64f.o
    0x00002338   0x000001f4   Code   RO          293    i.I2C_Control       i2c_mk64f.o
    0x0000252c   0x00000014   Code   RO          294    i.I2C_GetDataCount  i2c_mk64f.o
    0x00002540   0x00000008   Code   RO          295    i.I2C_GetStatus     i2c_mk64f.o
    0x00002548   0x00000006   Code   RO          296    i.I2C_HAL_ClearInt  i2c_mk64f.o
    0x0000254e   0x0000000c   Code   RO          297    i.I2C_HAL_GetStatusFlag  i2c_mk64f.o
    0x0000255a   0x0000000c   Code   RO         1989    i.I2C_HAL_GetStatusFlag  fsl_i2c_hal.o
    0x00002566   0x0000001e   Code   RO         1990    i.I2C_HAL_Init      fsl_i2c_hal.o
    0x00002584   0x00000016   Code   RO          298    i.I2C_HAL_IsMaster  i2c_mk64f.o
    0x0000259a   0x00000006   Code   RO          299    i.I2C_HAL_ReadByte  i2c_mk64f.o
    0x000025a0   0x0000000e   Code   RO          300    i.I2C_HAL_SendAck   i2c_mk64f.o
    0x000025ae   0x0000000e   Code   RO          301    i.I2C_HAL_SendNak   i2c_mk64f.o
    0x000025bc   0x00000024   Code   RO         1998    i.I2C_HAL_SendStart  fsl_i2c_hal.o
    0x000025e0   0x0000006c   Code   RO         1999    i.I2C_HAL_SendStop  fsl_i2c_hal.o
    0x0000264c   0x00000022   Code   RO         2000    i.I2C_HAL_SetAddress10bit  fsl_i2c_hal.o
    0x0000266e   0x00000014   Code   RO         2001    i.I2C_HAL_SetAddress7bit  fsl_i2c_hal.o
    0x00002682   0x00000002   PAD
    0x00002684   0x000000a8   Code   RO         2002    i.I2C_HAL_SetBaudRate  fsl_i2c_hal.o
    0x0000272c   0x0000000c   Code   RO          302    i.I2C_HAL_SetDirMode  i2c_mk64f.o
    0x00002738   0x0000000c   Code   RO          303    i.I2C_HAL_SetDmaCmd  i2c_mk64f.o
    0x00002744   0x0000000c   Code   RO          304    i.I2C_HAL_SetIntCmd  i2c_mk64f.o
    0x00002750   0x00000004   Code   RO          305    i.I2C_HAL_WriteByte  i2c_mk64f.o
    0x00002754   0x000000f8   Code   RO          306    i.I2C_Initialize    i2c_mk64f.o
    0x0000284c   0x0000013e   Code   RO          307    i.I2C_MasterReceive  i2c_mk64f.o
    0x0000298a   0x0000013e   Code   RO          308    i.I2C_MasterTransmit  i2c_mk64f.o
    0x00002ac8   0x00000168   Code   RO          309    i.I2C_PowerControl  i2c_mk64f.o
    0x00002c30   0x00000050   Code   RO          310    i.I2C_SlaveReceive  i2c_mk64f.o
    0x00002c80   0x00000050   Code   RO          311    i.I2C_SlaveTransmit  i2c_mk64f.o
    0x00002cd0   0x0000000a   Code   RO          312    i.I2C_Uninitialize  i2c_mk64f.o
    0x00002cda   0x00000002   PAD
    0x00002cdc   0x00000060   Code   RO          313    i.I2Cx_DMA_Callback  i2c_mk64f.o
    0x00002d3c   0x00000492   Code   RO          314    i.I2Cx_IRQHandler   i2c_mk64f.o
    0x000031ce   0x00000002   PAD
    0x000031d0   0x00000094   Code   RO          182    i.Initialize        fxos8700.o
    0x00003264   0x0000000c   Code   RO         2430    i.OSC_HAL_SetCapacitor  fsl_osc_hal.o
    0x00003270   0x0000000a   Code   RO         3592    i.OSC_HAL_SetExternalRefClkCmd  fsl_clock_manager.o
    0x0000327a   0x0000000a   Code   RO         3593    i.OSC_HAL_SetExternalRefClkInStopModeCmd  fsl_clock_manager.o
    0x00003284   0x00000054   Code   RO            7    i.PIT0_IRQHandler   headsup.o
    0x000032d8   0x00000100   Code   RO            8    i.PIT1_IRQHandler   headsup.o
    0x000033d8   0x00000020   Code   RO            9    i.PORTA_IRQHandler  headsup.o
    0x000033f8   0x00000044   Code   RO          315    i.PORT_HAL_SetMuxMode  i2c_mk64f.o
    0x0000343c   0x00000044   Code   RO          792    i.PORT_HAL_SetMuxMode  pin_mux.o
    0x00003480   0x00000038   Code   RO          316    i.PORT_HAL_SetOpenDrainCmd  i2c_mk64f.o
    0x000034b8   0x00000058   Code   RO          317    i.PTx_Base          i2c_mk64f.o
    0x00003510   0x0000000e   Code   RO         3594    i.RTC_HAL_SetOscillatorCmd  fsl_clock_manager.o
    0x0000351e   0x00000002   PAD
    0x00003520   0x00000070   Code   RO          186    i.Register_Read     fxos8700.o
    0x00003590   0x00000048   Code   RO          187    i.Register_Write    fxos8700.o
    0x000035d8   0x00000022   Code   RO         3297    i.SIM_HAL_EnableClock  fsl_clock_mk64f12.o
    0x000035fa   0x00000002   PAD
    0x000035fc   0x000001c4   Code   RO         3953    i.SystemCoreClockUpdate  system_mk64f12.o
    0x000037c0   0x0000002c   Code   RO         3954    i.SystemInit        system_mk64f12.o
    0x000037ec   0x0000000c   Code   RO         2766    i.UART_HAL_Getchar  fsl_uart_hal.o
    0x000037f8   0x0000000a   Code   RO         2770    i.UART_HAL_Putchar  fsl_uart_hal.o
    0x00003802   0x00000056   Code   RO         2772    i.UART_HAL_ReceiveDataPolling  fsl_uart_hal.o
    0x00003858   0x0000002e   Code   RO         2776    i.UART_HAL_SendDataPolling  fsl_uart_hal.o
    0x00003886   0x00000044   Code   RO         2777    i.UART_HAL_SetBaudRate  fsl_uart_hal.o
    0x000038ca   0x0000001c   Code   RO         2784    i.UART_HAL_SetParityMode  fsl_uart_hal.o
    0x000038e6   0x0000001a   Code   RO           10    i.__NVIC_EnableIRQ  headsup.o
    0x00003900   0x00000028   Code   RO           11    i.__NVIC_SetPriority  headsup.o
    0x00003928   0x00000564   Code   RO         3874    i._doprint          print_scan.o
    0x00003e8c   0x00000048   Code   RO          811    i.configure_uart_pins  pin_mux.o
    0x00003ed4   0x00000016   Code   RO          691    i.dbg_uart_init     board.o
    0x00003eea   0x00000002   PAD
    0x00003eec   0x0000003c   Code   RO         3784    i.debug_printf      fsl_debug_console.o
    0x00003f28   0x0000002c   Code   RO         3785    i.debug_putc        fsl_debug_console.o
    0x00003f54   0x00000030   Code   RO         3876    i.fput_pad          print_scan.o
    0x00003f84   0x0000006c   Code   RO           12    i.game_over         headsup.o
    0x00003ff0   0x0000001e   Code   RO         3923    i.hardware_init     hardware_init.o
    0x0000400e   0x00000002   PAD
    0x00004010   0x00000048   Code   RO          932    i.init_data_bss     startup.o
    0x00004058   0x00000b08   Code   RO           13    i.main              headsup.o
    0x00004b60   0x000000a6   Code   RO         3877    i.mknumstr          print_scan.o
    0x00004c06   0x00000002   PAD
    0x00004c08   0x00000044   Code   RO           14    i.print_next        headsup.o
    0x00004c4c   0x00000032   Code   RO           15    i.shuffle           headsup.o
    0x00004c7e   0x00000002   PAD
    0x00004c80   0x00000064   Code   RO           16    i.timer_setup       headsup.o
    0x00004ce4   0x0000000a   Code   RO         4208    x$fpl$fpinit        fz_wm.l(fpinit.o)
    0x00004cee   0x00000002   PAD
    0x00004cf0   0x00000110   Data   RO          319    .constdata          i2c_mk64f.o
    0x00004e00   0x00000048   Data   RO          692    .constdata          board.o
    0x00004e48   0x00000019   Data   RO          960    .constdata          fsl_edma_common.o
    0x00004e61   0x00000003   PAD
    0x00004e64   0x00000006   Data   RO         1415    .constdata          fsl_rtc_common.o
    0x00004e6a   0x000000c8   Data   RO         2007    .constdata          fsl_i2c_hal.o
    0x00004f32   0x00000030   Data   RO         2197    .constdata          fsl_mcg_hal.o
    0x00004f62   0x00000019   Data   RO         3299    .constdata          fsl_clock_mk64f12.o
    0x00004f7b   0x00000001   PAD
    0x00004f7c   0x0000000c   Data   RO         3713    .constdata          fsl_clock_manager_common.o
    0x00004f88   0x00000018   Data   RO         3791    .constdata          fsl_debug_console.o
    0x00004fa0   0x00000080   Data   RO           18    .conststring        headsup.o
    0x00005020   0x000000ef   Data   RO          320    .conststring        i2c_mk64f.o
    0x0000510f   0x00000001   PAD
    0x00005110   0x00000051   Data   RO         1002    .conststring        fsl_edma_driver.o
    0x00005161   0x00000003   PAD
    0x00005164   0x00000054   Data   RO         1803    .conststring        fsl_edma_hal.o
    0x000051b8   0x00000054   Data   RO         1957    .conststring        fsl_gpio_hal.o
    0x0000520c   0x00000052   Data   RO         2008    .conststring        fsl_i2c_hal.o
    0x0000525e   0x00000002   PAD
    0x00005260   0x00000065   Data   RO         3300    .conststring        fsl_clock_mk64f12.o
    0x000052c5   0x00000003   PAD
    0x000052c8   0x0000005d   Data   RO         3596    .conststring        fsl_clock_manager.o
    0x00005325   0x00000003   PAD
    0x00005328   0x00000020   Data   RO         4299    Region$$Table       anon$$obj.o


    Execution Region RW_m_data (Base: 0x1fff0000, Size: 0x00000000, Max: 0x00010000, ABSOLUTE)

    **** No section assigned to this execution region ****


    Execution Region RW_m_data_2 (Base: 0x20000000, Size: 0x00000370, Max: 0x0002f800, ABSOLUTE)

    Base Addr    Size         Type   Attr      Idx    E Section Name        Object

    0x20000000   0x00000014   Data   RW           19    .data               headsup.o
    0x20000014   0x00000001   Data   RW          188    .data               fxos8700.o
    0x20000015   0x00000003   PAD
    0x20000018   0x00000004   Data   RW         1003    .data               fsl_edma_driver.o
    0x2000001c   0x00000010   Data   RW         2198    .data               fsl_mcg_hal.o
    0x2000002c   0x00000004   Data   RW         3955    .data               system_mk64f12.o
    0x20000030   0x000001ec   Zero   RW           17    .bss                headsup.o
    0x2000021c   0x00000060   Zero   RW          318    .bss                i2c_mk64f.o
    0x2000027c   0x00000010   Zero   RW         3790    .bss                fsl_debug_console.o
    0x2000028c   0x000000e4   Zero   RW         4056    .bss                c_w.l(rand.o)


    Execution Region ARM_LIB_HEAP (Base: 0x20000370, Size: 0x00000400, Max: 0x00000400, ABSOLUTE)

    Base Addr    Size         Type   Attr      Idx    E Section Name        Object

    0x20000370   0x00000400   Zero   RW            1    ARM_LIB_HEAP.bss    anon$$obj.o


    Execution Region ARM_LIB_STACK (Base: 0x2002fc00, Size: 0x00000400, Max: 0x00000400, ABSOLUTE)

    Base Addr    Size         Type   Attr      Idx    E Section Name        Object

    0x2002fc00   0x00000400   Zero   RW            2    ARM_LIB_STACK.bss   anon$$obj.o



  Load Region LR_m_interrupts (Base: 0x00000000, Size: 0x00000400, Max: 0x00000400, ABSOLUTE)

    Execution Region VECTOR_RAM (Base: 0x00000000, Size: 0x00000000, Max: 0x00000000, ABSOLUTE)

    Base Addr    Size         Type   Attr      Idx    E Section Name        Object

    0x00000000   0x00000000   Zero   RW            3    VECTOR_RAM.bss      anon$$obj.o


    Execution Region VECTOR_ROM (Base: 0x00000000, Size: 0x00000400, Max: 0x00000400, ABSOLUTE)

    Base Addr    Size         Type   Attr      Idx    E Section Name        Object

    0x00000000   0x00000400   Data   RO         3944    RESET               startup_mk64f12.o



  Load Region LR_m_flash_config (Base: 0x00000400, Size: 0x00000010, Max: 0x00000010, ABSOLUTE)

    Execution Region ER_m_flash_config (Base: 0x00000400, Size: 0x00000010, Max: 0x00000010, ABSOLUTE)

    Base Addr    Size         Type   Attr      Idx    E Section Name        Object

    0x00000400   0x00000010   Data   RO         3945    FlashConfig         startup_mk64f12.o


==============================================================================

Image component sizes


      Code (inc. data)   RO Data    RW Data    ZI Data      Debug   Object Name

       174         40         72          0          0      28275   board.o
       978        110         93          0          0      29917   fsl_clock_manager.o
         0          0         12          0          0        904   fsl_clock_manager_common.o
       594        222        126          0          0      29059   fsl_clock_mk64f12.o
       292         30         24          0         16      15026   fsl_debug_console.o
         0          0         25          0          0        913   fsl_edma_common.o
       690        130         81          4          0      17700   fsl_edma_driver.o
      1054        154         84          0          0      14822   fsl_edma_hal.o
       160          0          0          0          0       9086   fsl_edma_irq.o
        68         16         84          0          0       1133   fsl_gpio_hal.o
       408         40        282          0          0       8630   fsl_i2c_hal.o
       802         40         48         16          0      16914   fsl_mcg_hal.o
       914         14          0          0          0      12600   fsl_mcg_hal_modes.o
         0          0          0          0          0       9164   fsl_os_abstraction_bm.o
        12          0          0          0          0       1011   fsl_osc_hal.o
         0          0          6          0          0        781   fsl_rtc_common.o
        56          0          0          0          0       1458   fsl_sim_hal_mk64f12.o
       250          0          0          0          0      12807   fsl_uart_hal.o
       592         30          0          1          0       5359   fxos8700.o
        30          0          0          0          0        548   hardware_init.o
      3588       2188        128         20        492     663835   headsup.o
      4734        410        511          0         96     117766   i2c_mk64f.o
       140         30          0          0          0       3258   pin_mux.o
      1594         26          0          0          0       5795   print_scan.o
        72         18          0          0          0        580   startup.o
        56         18       1040          0          0        864   startup_mk64f12.o
       496         44          0          4          0       1663   system_mk64f12.o

    ----------------------------------------------------------------------
     17788       3560       2664         48       2652    1009868   Object Totals
         0          0         32          0       2048          0   (incl. Generated)
        34          0         16          3          0          0   (incl. Padding)

    ----------------------------------------------------------------------

      Code (inc. data)   RO Data    RW Data    ZI Data      Debug   Library Member Name

         8          0          0          0          0         68   __main.o
         0          0          0          0          0          0   __rtentry.o
        12          0          0          0          0          0   __rtentry2.o
         8          4          0          0          0          0   __rtentry7.o
        52          8          0          0          0          0   __scatter.o
        26          0          0          0          0          0   __scatter_copy.o
        28          0          0          0          0          0   __scatter_zi.o
        22          0          0          0          0         80   abort.o
       128         42          0          0          0         76   assert.o
        20          0          0          0          0         76   assert_puts.o
        48         34          0          0          0         76   defsig_abrt_inner.o
        14          0          0          0          0         80   defsig_abrt_outer.o
        10          0          0          0          0         68   defsig_exit.o
        50          0          0          0          0         88   defsig_general.o
        18          0          0          0          0         80   exit.o
         0          0          0          0          0          0   indicate_semi.o
         2          0          0          0          0          0   libinit.o
        10          0          0          0          0          0   libinit2.o
         2          0          0          0          0          0   libshutdown.o
         2          0          0          0          0          0   libshutdown2.o
       112         18          0          0        228        160   rand.o
        78          0          0          0          0         80   rt_memclr_w.o
       100          0          0          0          0         80   rt_memcpy_w.o
         2          0          0          0          0          0   rtexit.o
        10          0          0          0          0          0   rtexit2.o
        62          0          0          0          0         76   strlen.o
        12          4          0          0          0         68   sys_exit.o
        14          0          0          0          0         76   sys_wrch.o
         2          0          0          0          0         68   use_no_semi.o
        10          0          0          0          0        116   fpinit.o

    ----------------------------------------------------------------------
       868        110          0          0        228       1416   Library Totals
         6          0          0          0          0          0   (incl. Padding)

    ----------------------------------------------------------------------

      Code (inc. data)   RO Data    RW Data    ZI Data      Debug   Library Name

       852        110          0          0        228       1300   c_w.l
        10          0          0          0          0        116   fz_wm.l

    ----------------------------------------------------------------------
       868        110          0          0        228       1416   Library Totals

    ----------------------------------------------------------------------

==============================================================================


      Code (inc. data)   RO Data    RW Data    ZI Data      Debug   

     18656       3670       2664         48       2880     991508   Grand Totals
     18656       3670       2664         48       2880     991508   ELF Image Totals
     18656       3670       2664         48          0          0   ROM Totals

==============================================================================

    Total RO  Size (Code + RO Data)                21320 (  20.82kB)
    Total RW  Size (RW Data + ZI Data)              2928 (   2.86kB)
    Total ROM Size (Code + RO Data + RW Data)      21368 (  20.87kB)

==============================================================================

